BL51 BANKED LINKER/LOCATER V6.22.2.0                                                    03/24/2020  19:38:01  PAGE 1


BL51 BANKED LINKER/LOCATER V6.22.2.0, INVOKED BY:
C:\KEIL\C51\BIN\BL51.EXE STARTUP.obj, power.obj TO power RAMSIZE (256) CODE (0X0000-0X9FFF) XDATA (0X8000-0XBFFF)


MEMORY MODEL: SMALL WITH FLOATING POINT ARITHMETIC


INPUT MODULES INCLUDED:
  STARTUP.obj (?C_STARTUP)
  power.obj (POWER)
  C:\KEIL\C51\LIB\C51FPS.LIB (?C?FPADD)
  C:\KEIL\C51\LIB\C51FPS.LIB (?C?FPMUL)
  C:\KEIL\C51\LIB\C51FPS.LIB (?C?FPDIV)
  C:\KEIL\C51\LIB\C51FPS.LIB (?C?FPCMP)
  C:\KEIL\C51\LIB\C51FPS.LIB (?C?FCAST)
  C:\KEIL\C51\LIB\C51FPS.LIB (?C?CASTF)
  C:\KEIL\C51\LIB\C51FPS.LIB (FABS)
  C:\KEIL\C51\LIB\C51FPS.LIB (?C?FPGETOPN)
  C:\KEIL\C51\LIB\C51S.LIB (?C?CLDPTR)
  C:\KEIL\C51\LIB\C51S.LIB (?C?CSTPTR)
  C:\KEIL\C51\LIB\C51S.LIB (?C?IMUL)
  C:\KEIL\C51\LIB\C51S.LIB (?C?IILDX)
  C:\KEIL\C51\LIB\C51S.LIB (?C?ILDPTR)
  C:\KEIL\C51\LIB\C51S.LIB (?C?ISTPTR)
  C:\KEIL\C51\LIB\C51S.LIB (?C?LOR)
  C:\KEIL\C51\LIB\C51S.LIB (?C?LNEG)
  C:\KEIL\C51\LIB\C51S.LIB (?C?SLCMP)
  C:\KEIL\C51\LIB\C51S.LIB (?C?ULSHR)
  C:\KEIL\C51\LIB\C51S.LIB (?C?LLDPTR)
  C:\KEIL\C51\LIB\C51S.LIB (?C?LSTPTR)
  C:\KEIL\C51\LIB\C51S.LIB (?C?LLDXDATA)
  C:\KEIL\C51\LIB\C51S.LIB (?C?LLDCODE)
  C:\KEIL\C51\LIB\C51S.LIB (?C?LLDXDATA0)
  C:\KEIL\C51\LIB\C51S.LIB (?C?LLDPTR0)
  C:\KEIL\C51\LIB\C51S.LIB (?C?LSTXDATA)
  C:\KEIL\C51\LIB\C51S.LIB (?C?LSTKXDATA)
  C:\KEIL\C51\LIB\C51S.LIB (?C?OFFXADD)
  C:\KEIL\C51\LIB\C51S.LIB (?C?CCASE)
  C:\KEIL\C51\LIB\C51S.LIB (ABS)
  C:\KEIL\C51\LIB\C51S.LIB (?C?LLDIDATA)
  C:\KEIL\C51\LIB\C51S.LIB (?C?LLDPDATA)
  C:\KEIL\C51\LIB\C51S.LIB (?C?LLDIDATA0)
  C:\KEIL\C51\LIB\C51S.LIB (?C?LLDPDATA0)
  C:\KEIL\C51\LIB\C51S.LIB (?C?LLDCODE0)
  C:\KEIL\C51\LIB\C51S.LIB (?C?LSTIDATA)
  C:\KEIL\C51\LIB\C51S.LIB (?C?LSTPDATA)


LINK MAP OF MODULE:  power (?C_STARTUP)


            TYPE    BASE      LENGTH    RELOCATION   SEGMENT NAME
            -----------------------------------------------------

            * * * * * * *   D A T A   M E M O R Y   * * * * * * *
            REG     0000H     0008H     ABSOLUTE     "REG BANK 0"
            REG     0008H     0008H     ABSOLUTE     "REG BANK 1"
                    0010H     0008H                  *** GAP ***
BL51 BANKED LINKER/LOCATER V6.22.2.0                                                  03/24/2020  19:38:01  PAGE 2


            REG     0018H     0008H     ABSOLUTE     "REG BANK 3"
            DATA    0020H     001CH     UNIT         ?DT?POWER
            DATA    003CH     0010H     UNIT         _DATA_GROUP_
            IDATA   004CH     0001H     UNIT         ?STACK

            * * * * * * *  X D A T A   M E M O R Y  * * * * * * *
                    0000H     8000H                  *** GAP ***
            XDATA   8000H     09C5H     UNIT         ?XD?POWER
            XDATA   89C5H     0044H     UNIT         _XDATA_GROUP_
                    8A09H     05F7H                  *** GAP ***
            XDATA   9000H     0046H     ABSOLUTE     
                    9046H     01BAH                  *** GAP ***
            XDATA   9200H     00AAH     ABSOLUTE     
                    92AAH     0156H                  *** GAP ***
            XDATA   9400H     0046H     ABSOLUTE     
                    9446H     01BAH                  *** GAP ***
            XDATA   9600H     0080H     ABSOLUTE     
                    9680H     0180H                  *** GAP ***
            XDATA   9800H     0120H     ABSOLUTE     

            * * * * * * *   C O D E   M E M O R Y   * * * * * * *
            CODE    0000H     0003H     ABSOLUTE     
            CODE    0003H     0003H     ABSOLUTE     
                    0006H     0005H                  *** GAP ***
            CODE    000BH     0003H     ABSOLUTE     
                    000EH     0005H                  *** GAP ***
            CODE    0013H     0003H     ABSOLUTE     
                    0016H     0005H                  *** GAP ***
            CODE    001BH     0008H     ABSOLUTE     
            CODE    0023H     0008H     ABSOLUTE     
            CODE    002BH     0008H     ABSOLUTE     
            CODE    0033H     12F9H     UNIT         ?PR?SAVEDATARS2?POWER
            CODE    132CH     09E3H     UNIT         ?PR?ONOFFHOOK?POWER
            CODE    1D0FH     097AH     UNIT         ?PR?SAVEDATARS1?POWER
            CODE    2689H     0602H     UNIT         ?C?LIB_CODE
            CODE    2C8BH     05EEH     UNIT         ?PR?ANCOLLECT?POWER
            CODE    3279H     05E2H     UNIT         ?PR?DATAINIT?POWER
            CODE    385BH     058AH     UNIT         ?PR?IMPORTDATAFLUSH?POWER
            CODE    3DE5H     04C9H     UNIT         ?PR?DATAPROTECT?POWER
            CODE    42AEH     04A9H     UNIT         ?PR?_IMPORTANTSAVEDATA?POWER
            CODE    4757H     046DH     UNIT         ?PR?UPLOADPARAMANAGE?POWER
            CODE    4BC4H     0400H     UNIT         ?PR?STATEWORDBUILD?POWER
            CODE    4FC4H     0382H     UNIT         ?PR?EQUCONTROL?POWER
            CODE    5346H     0363H     UNIT         ?PR?POWERCONTROL?POWER
            CODE    56A9H     0351H     UNIT         ?PR?EQUANCOLLECT?POWER
            CODE    59FAH     02FBH     UNIT         ?PR?SINGLEPROTECTCHARGECONTROL?POWER
            CODE    5CF5H     0287H     UNIT         ?PR?SEPCURRENTSHORTCHECK?POWER
            CODE    5F7CH     0267H     UNIT         ?PR?OVERCHARGEPROTECT?POWER
            CODE    61E3H     023CH     UNIT         ?PR?HEALTHSTATEWORDBUILD?POWER
            CODE    641FH     0222H     UNIT         ?PR?_ONOFFSELFEXEREC?POWER
            CODE    6641H     0220H     UNIT         ?PR?RSMANAGEA?POWER
            CODE    6861H     0220H     UNIT         ?PR?RSMANAGEB?POWER
            CODE    6A81H     01F5H     UNIT         ?PR?SAVEIMPORTANTDATARS?POWER
            CODE    6C76H     01F4H     UNIT         ?PR?_FILTERSAVEDATA?POWER
            CODE    6E6AH     01ECH     UNIT         ?PR?CHARGECHECK?POWER
            CODE    7056H     01E4H     UNIT         ?PR?SAVEDATARS3?POWER
            CODE    723AH     01D6H     UNIT         ?PR?FILTERDATACOMP?POWER
BL51 BANKED LINKER/LOCATER V6.22.2.0                                                  03/24/2020  19:38:01  PAGE 3


            CODE    7410H     01BDH     UNIT         ?PR?SAVERAMDATARS?POWER
            CODE    75CDH     0164H     UNIT         ?PR?CANRXDA?POWER
            CODE    7731H     0164H     UNIT         ?PR?CANRXDB?POWER
            CODE    7895H     014BH     UNIT         ?PR?_GET2_3_F?POWER
            CODE    79E0H     0138H     UNIT         ?PR?_ADCONVERT?POWER
            CODE    7B18H     0122H     UNIT         ?CO?POWER
            CODE    7C3AH     0101H     UNIT         ?PR?AQVOLCHECK?POWER
            CODE    7D3BH     00E9H     UNIT         ?PR?_SEPCURRENTSTATECAL?POWER
            CODE    7E24H     00C5H     UNIT         ?PR?AUTOONOFF?POWER
            CODE    7EE9H     00C2H     UNIT         ?PR?CANRESUME?POWER
            CODE    7FABH     0035H     UNIT         ?PR?AHVOLUNDERCHECK?POWER
            CODE    7FE0H     0019H     ABSOLUTE     
                    7FF9H     0006H                  *** GAP ***
            CODE    7FFFH     0001H     ABSOLUTE     
            CODE    8000H     00C0H     UNIT         ?PR?_GET2_3_I?POWER
            CODE    80C0H     008DH     UNIT         ?PR?MAIN?POWER
            CODE    814DH     008CH     UNIT         ?PR?_GET2_3_U?POWER
            CODE    81D9H     0088H     UNIT         ?PR?SYSTEMINIT?POWER
            CODE    8261H     0086H     UNIT         ?PR?_CANINIT?POWER
            CODE    82E7H     0082H     UNIT         ?PR?ONOFFMANAGEA?POWER
            CODE    8369H     0082H     UNIT         ?PR?ONOFFMANAGEB?POWER
            CODE    83EBH     007DH     UNIT         ?PR?RAMCHECK?POWER
            CODE    8468H     0076H     UNIT         ?PR?TIMEBCA?POWER
            CODE    84DEH     0076H     UNIT         ?PR?TIMEBCB?POWER
            CODE    8554H     0074H     UNIT         ?PR?EQU_ISR?POWER
            CODE    85C8H     0070H     UNIT         ?PR?POWERSUPPLYCHECK?POWER
            CODE    8638H     006EH     UNIT         ?PR?IMPORTANTDATARX?POWER
            CODE    86A6H     0059H     UNIT         ?PR?DATAMANAGEA?POWER
            CODE    86FFH     0059H     UNIT         ?PR?DATAMANAGEB?POWER
            CODE    8758H     0059H     UNIT         ?PR?IMPORTANTMANAGEA?POWER
            CODE    87B1H     0059H     UNIT         ?PR?IMPORTANTMANAGEB?POWER
            CODE    880AH     0058H     UNIT         ?PR?CAN_ISR?POWER
            CODE    8862H     0053H     UNIT         ?PR?RAMMANAGEA?POWER
            CODE    88B5H     0053H     UNIT         ?PR?RAMMANAGEB?POWER
            CODE    8908H     004FH     UNIT         ?PR?EQUVREFCHECK?POWER
            CODE    8957H     004DH     UNIT         ?PR?EQUWORKCHECK?POWER
            CODE    89A4H     0049H     UNIT         ?PR?CANTXDA?POWER
            CODE    89EDH     0049H     UNIT         ?PR?CANTXDB?POWER
            CODE    8A36H     0049H     UNIT         ?PR?FILTERMANAGE?POWER
            CODE    8A7FH     0046H     UNIT         ?PR?SELFHEALTHCHECK?POWER
            CODE    8AC5H     0045H     UNIT         ?PR?EQUONOFFHOOK?POWER
            CODE    8B0AH     003BH     UNIT         ?PR?IMPORTANTDATATX?POWER
            CODE    8B45H     0039H     UNIT         ?PR?GENVOLOVERCHECK?POWER
            CODE    8B7EH     0038H     UNIT         ?PR?AHVOLOVERCHECK?POWER
            CODE    8BB6H     0036H     UNIT         ?PR?GENVOLUNDERCHECK?POWER
            CODE    8BECH     0025H     UNIT         ?PR?CANINFOB?POWER
            CODE    8C11H     001EH     UNIT         ?PR?HEALTHCHECK?POWER
            CODE    8C2FH     001CH     UNIT         ?PR?CANINFOA?POWER
            CODE    8C4BH     001BH     UNIT         ?PR?_ONOFFOUTPUT?POWER
            CODE    8C66H     0019H     UNIT         ?PR?CPUINIT?POWER
            CODE    8C7FH     0017H     UNIT         ?PR?_DELAY?POWER
            CODE    8C96H     000FH     UNIT         ?C_C51STARTUP
            CODE    8CA5H     000DH     UNIT         ?PR?TIMER_ISR?POWER
            CODE    8CB2H     000DH     UNIT         ?PR?_FABS?FABS
            CODE    8CBFH     000CH     UNIT         ?PR?_ABS?ABS
            CODE    8CCBH     0009H     UNIT         ?PR?SAVEDATA?POWER

BL51 BANKED LINKER/LOCATER V6.22.2.0                                                  03/24/2020  19:38:01  PAGE 4




OVERLAY MAP OF MODULE:   power (?C_STARTUP)


SEGMENT                                        DATA_GROUP          XDATA_GROUP
  +--> CALLED SEGMENT                        START    LENGTH     START    LENGTH
--------------------------------------------------------------------------------
?C_C51STARTUP                                -----    -----      -----    -----
  +--> ?PR?MAIN?POWER

?PR?MAIN?POWER                               003CH    0002H      -----    -----
  +--> ?PR?SYSTEMINIT?POWER
  +--> ?PR?SAVEDATA?POWER
  +--> ?PR?DATAPROTECT?POWER
  +--> ?PR?ANCOLLECT?POWER
  +--> ?PR?STATEWORDBUILD?POWER
  +--> ?PR?_DELAY?POWER
  +--> ?PR?CHARGECHECK?POWER
  +--> ?PR?EQUCONTROL?POWER
  +--> ?PR?EQUONOFFHOOK?POWER
  +--> ?PR?FILTERMANAGE?POWER
  +--> ?PR?POWERCONTROL?POWER
  +--> ?PR?OVERCHARGEPROTECT?POWER
  +--> ?PR?SINGLEPROTECTCHARGECONTROL?POWER
  +--> ?PR?CANRESUME?POWER
  +--> ?PR?UPLOADPARAMANAGE?POWER
  +--> ?PR?HEALTHCHECK?POWER
  +--> ?PR?SELFHEALTHCHECK?POWER
  +--> ?PR?ONOFFHOOK?POWER
  +--> ?PR?IMPORTANTDATATX?POWER

?PR?SYSTEMINIT?POWER                         -----    -----      -----    -----
  +--> ?PR?DATAINIT?POWER
  +--> ?PR?ANCOLLECT?POWER
  +--> ?PR?STATEWORDBUILD?POWER
  +--> ?PR?SAVEDATA?POWER
  +--> ?PR?SAVERAMDATARS?POWER
  +--> ?PR?_FILTERSAVEDATA?POWER
  +--> ?PR?FILTERDATACOMP?POWER
  +--> ?PR?_IMPORTANTSAVEDATA?POWER
  +--> ?PR?SAVEIMPORTANTDATARS?POWER
  +--> ?PR?CPUINIT?POWER
  +--> ?PR?_CANINIT?POWER
  +--> ?PR?CANINFOA?POWER
  +--> ?PR?CANINFOB?POWER
  +--> ?PR?IMPORTANTDATARX?POWER

?PR?DATAINIT?POWER                           003EH    0002H      -----    -----

?PR?ANCOLLECT?POWER                          003EH    0001H      -----    -----
  +--> ?PR?EQUANCOLLECT?POWER
  +--> ?CO?POWER
  +--> ?PR?_ADCONVERT?POWER
  +--> ?PR?_SEPCURRENTSTATECAL?POWER

?PR?EQUANCOLLECT?POWER                       003FH    0007H      -----    -----
BL51 BANKED LINKER/LOCATER V6.22.2.0                                                  03/24/2020  19:38:01  PAGE 5


  +--> ?PR?_DELAY?POWER

?PR?_ADCONVERT?POWER                         003FH    0002H      89C5H    0014H
  +--> ?PR?_DELAY?POWER

?PR?_SEPCURRENTSTATECAL?POWER                003FH    0001H      89C5H    0004H

?PR?SAVEDATA?POWER                           -----    -----      -----    -----
  +--> ?PR?SAVEDATARS1?POWER
  +--> ?PR?SAVEDATARS2?POWER
  +--> ?PR?SAVERAMDATARS?POWER

?PR?SAVEDATARS1?POWER                        003EH    0004H      -----    -----

?PR?SAVEDATARS2?POWER                        003EH    0003H      -----    -----

?PR?SAVERAMDATARS?POWER                      003EH    0003H      -----    -----

?PR?FILTERDATACOMP?POWER                     003EH    0003H      -----    -----
  +--> ?PR?_ABS?ABS

?PR?_IMPORTANTSAVEDATA?POWER                 003EH    0003H      -----    -----

?PR?SAVEIMPORTANTDATARS?POWER                003EH    0007H      -----    -----

?PR?_CANINIT?POWER                           -----    -----      -----    -----
  +--> ?PR?_DELAY?POWER

?PR?CANINFOB?POWER                           -----    -----      -----    -----
  +--> ?PR?_CANINIT?POWER

?PR?IMPORTANTDATARX?POWER                    003EH    0002H      -----    -----
  +--> ?PR?_DELAY?POWER
  +--> ?PR?IMPORTDATAFLUSH?POWER
  +--> ?PR?AUTOONOFF?POWER

?PR?IMPORTDATAFLUSH?POWER                    -----    -----      -----    -----
  +--> ?CO?POWER

?PR?AUTOONOFF?POWER                          -----    -----      -----    -----
  +--> ?CO?POWER
  +--> ?PR?_DELAY?POWER
  +--> ?PR?_ONOFFOUTPUT?POWER

?PR?_ONOFFOUTPUT?POWER                       -----    -----      -----    -----
  +--> ?CO?POWER
  +--> ?PR?_DELAY?POWER

?PR?DATAPROTECT?POWER                        -----    -----      -----    -----
  +--> ?PR?_GET2_3_U?POWER
  +--> ?PR?_GET2_3_F?POWER
  +--> ?PR?_GET2_3_I?POWER

?PR?_GET2_3_U?POWER                          003EH    0009H      -----    -----

?PR?_GET2_3_F?POWER                          003EH    0009H      89C5H    000CH
  +--> ?PR?_FABS?FABS
BL51 BANKED LINKER/LOCATER V6.22.2.0                                                  03/24/2020  19:38:01  PAGE 6



?PR?_GET2_3_I?POWER                          003EH    0009H      -----    -----

?PR?CHARGECHECK?POWER                        003EH    0001H      -----    -----
  +--> ?PR?_ONOFFSELFEXEREC?POWER

?PR?_ONOFFSELFEXEREC?POWER                   -----    -----      -----    -----
  +--> ?CO?POWER

?PR?EQUCONTROL?POWER                         003EH    0004H      -----    -----
  +--> ?PR?_FABS?FABS
  +--> ?CO?POWER

?PR?EQUONOFFHOOK?POWER                       -----    -----      -----    -----
  +--> ?PR?_DELAY?POWER

?PR?FILTERMANAGE?POWER                       -----    -----      -----    -----
  +--> ?PR?_FILTERSAVEDATA?POWER
  +--> ?PR?FILTERDATACOMP?POWER
  +--> ?PR?SAVEDATARS3?POWER

?PR?SAVEDATARS3?POWER                        003EH    0007H      -----    -----

?PR?POWERCONTROL?POWER                       003EH    0001H      -----    -----
  +--> ?CO?POWER

?PR?OVERCHARGEPROTECT?POWER                  003EH    0001H      89C5H    0010H
  +--> ?PR?_FABS?FABS
  +--> ?PR?_ONOFFOUTPUT?POWER
  +--> ?PR?_ONOFFSELFEXEREC?POWER

?PR?SINGLEPROTECTCHARGECONTROL?POWER         003EH    0004H      89C5H    0010H
  +--> ?PR?_FABS?FABS
  +--> ?CO?POWER
  +--> ?PR?_ONOFFSELFEXEREC?POWER

?PR?CANRESUME?POWER                          003EH    0004H      -----    -----
  +--> ?PR?_CANINIT?POWER
  +--> ?PR?CANINFOA?POWER
  +--> ?PR?CANINFOB?POWER
  +--> ?PR?_DELAY?POWER

?PR?UPLOADPARAMANAGE?POWER                   003EH    0002H      -----    -----

?PR?HEALTHCHECK?POWER                        -----    -----      -----    -----
  +--> ?PR?GENVOLOVERCHECK?POWER
  +--> ?PR?GENVOLUNDERCHECK?POWER
  +--> ?PR?AHVOLOVERCHECK?POWER
  +--> ?PR?AHVOLUNDERCHECK?POWER
  +--> ?PR?EQUVREFCHECK?POWER
  +--> ?PR?EQUWORKCHECK?POWER
  +--> ?PR?SEPCURRENTSHORTCHECK?POWER
  +--> ?PR?AQVOLCHECK?POWER
  +--> ?PR?HEALTHSTATEWORDBUILD?POWER

?PR?SEPCURRENTSHORTCHECK?POWER               003EH    0001H      89C5H    0044H

BL51 BANKED LINKER/LOCATER V6.22.2.0                                                  03/24/2020  19:38:01  PAGE 7


?PR?AQVOLCHECK?POWER                         003EH    0001H      -----    -----

?PR?SELFHEALTHCHECK?POWER                    003EH    0001H      -----    -----
  +--> ?PR?RAMCHECK?POWER
  +--> ?PR?POWERSUPPLYCHECK?POWER

?PR?RAMCHECK?POWER                           -----    -----      89C5H    0040H

?PR?ONOFFHOOK?POWER                          -----    -----      -----    -----
  +--> ?CO?POWER
  +--> ?PR?_ONOFFOUTPUT?POWER
  +--> ?PR?_CANINIT?POWER
  +--> ?PR?CANINFOA?POWER
  +--> ?PR?CANINFOB?POWER

?PR?IMPORTANTDATATX?POWER                    -----    -----      -----    -----
  +--> ?PR?_IMPORTANTSAVEDATA?POWER
  +--> ?PR?SAVEIMPORTANTDATARS?POWER

*** NEW ROOT ***************************************************

?PR?EQU_ISR?POWER                            0047H    0001H      -----    -----

*** NEW ROOT ***************************************************

?PR?CAN_ISR?POWER                            0048H    0001H      -----    -----
  +--> ?PR?CANRXDA?POWER
  +--> ?PR?CANTXDA?POWER
  +--> ?PR?CANRXDB?POWER
  +--> ?PR?CANTXDB?POWER

?PR?CANRXDA?POWER                            0049H    0003H      -----    -----
  +--> ?PR?RSMANAGEA?POWER
  +--> ?PR?ONOFFMANAGEA?POWER
  +--> ?PR?TIMEBCA?POWER
  +--> ?PR?DATAMANAGEA?POWER
  +--> ?PR?IMPORTANTMANAGEA?POWER
  +--> ?PR?RAMMANAGEA?POWER

?PR?CANRXDB?POWER                            0049H    0003H      -----    -----
  +--> ?PR?RSMANAGEB?POWER
  +--> ?PR?ONOFFMANAGEB?POWER
  +--> ?PR?TIMEBCB?POWER
  +--> ?PR?DATAMANAGEB?POWER
  +--> ?PR?IMPORTANTMANAGEB?POWER
  +--> ?PR?RAMMANAGEB?POWER



SYMBOL TABLE OF MODULE:  power (?C_STARTUP)

  VALUE           TYPE          NAME
  ----------------------------------

  -------         MODULE        ?C_STARTUP
  C:8C96H         SEGMENT       ?C_C51STARTUP
  I:004CH         SEGMENT       ?STACK
BL51 BANKED LINKER/LOCATER V6.22.2.0                                                  03/24/2020  19:38:01  PAGE 8


  C:0000H         PUBLIC        ?C_STARTUP
  D:00E0H         SYMBOL        ACC
  D:00F0H         SYMBOL        B
  D:0083H         SYMBOL        DPH
  D:0082H         SYMBOL        DPL
  B:00A8H.7       SYMBOL        EA
  C:7FE0H         SYMBOL        ERR1
  C:7FF3H         SYMBOL        ERR2
  N:0000H         SYMBOL        IBPSTACK
  N:0100H         SYMBOL        IBPSTACKTOP
  N:0080H         SYMBOL        IDATALEN
  C:8C9CH         SYMBOL        IDATALOOP
  N:0000H         SYMBOL        PBPSTACK
  N:0000H         SYMBOL        PBPSTACKTOP
  N:0000H         SYMBOL        PDATALEN
  N:0000H         SYMBOL        PDATASTART
  N:0000H         SYMBOL        PPAGE
  N:0000H         SYMBOL        PPAGEENABLE
  D:00A0H         SYMBOL        PPAGE_SFR
  D:00D0H         SYMBOL        PSW
  B:0098H.0       SYMBOL        RI
  D:0081H         SYMBOL        SP
  C:8C96H         SYMBOL        STARTUP1
  B:00C8H.7       SYMBOL        TF2
  B:0098H.1       SYMBOL        TI
  N:0000H         SYMBOL        XBPSTACK
  N:0000H         SYMBOL        XBPSTACKTOP
  N:0000H         SYMBOL        XDATALEN
  N:0000H         SYMBOL        XDATASTART
  C:0000H         LINE#         96
  C:001BH         LINE#         116
  C:001CH         LINE#         117
  C:001DH         LINE#         118
  C:001EH         LINE#         119
  C:001FH         LINE#         120
  C:0020H         LINE#         121
  C:0023H         LINE#         125
  C:0024H         LINE#         126
  C:0025H         LINE#         127
  C:0026H         LINE#         128
  C:0027H         LINE#         129
  C:0028H         LINE#         130
  C:002BH         LINE#         135
  C:002CH         LINE#         136
  C:002DH         LINE#         137
  C:002EH         LINE#         138
  C:002FH         LINE#         139
  C:0030H         LINE#         140
  C:7FE0H         LINE#         145
  C:7FE2H         LINE#         146
  C:7FE4H         LINE#         147
  C:7FE6H         LINE#         148
  C:7FE8H         LINE#         149
  C:7FEBH         LINE#         150
  C:7FEEH         LINE#         151
  C:7FF0H         LINE#         152
  C:7FF2H         LINE#         153
BL51 BANKED LINKER/LOCATER V6.22.2.0                                                  03/24/2020  19:38:01  PAGE 9


  C:7FF3H         LINE#         155
  C:7FF4H         LINE#         156
  C:7FF6H         LINE#         157
  C:7FF8H         LINE#         158
  C:8C96H         LINE#         163
  C:8C99H         LINE#         166
  C:8C9BH         LINE#         167
  C:8C9CH         LINE#         168
  C:8C9DH         LINE#         169
  C:8C9FH         LINE#         218
  C:8CA2H         LINE#         222
  -------         ENDMOD        ?C_STARTUP

  -------         MODULE        POWER
  C:0000H         SYMBOL        _ICE_DUMMY_
  X:8000H         PUBLIC        healthStateContr2C
  X:8002H         PUBLIC        chargePower
  C:7B18H         PUBLIC        rsTab
  C:8C66H         PUBLIC        CPUInit
  X:8006H         PUBLIC        pcuState1
  X:8007H         PUBLIC        pcuState2
  D:0090H         PUBLIC        P1
  C:59FAH         PUBLIC        SingleProtectChargeControl
  C:385BH         PUBLIC        ImportDataFlush
  X:8008H         PUBLIC        pcuState3
  C:83EBH         PUBLIC        RamCheck
  X:8009H         PUBLIC        checkCountAqA
  X:8012H         PUBLIC        equState1
  X:8013H         PUBLIC        pcuState4
  X:8014H         PUBLIC        chargeCurKickA_B
  D:00B0H         PUBLIC        P3
  C:85C8H         PUBLIC        PowerSupplyCheck
  C:8908H         PUBLIC        EquVRefCheck
  C:75CDH         PUBLIC        CANRXDA
  X:8015H         PUBLIC        checkCountAqB
  X:801EH         PUBLIC        equState2
  X:801FH         PUBLIC        chargeCurKickB_B
  X:8020H         PUBLIC        chargeCurKickA_C
  C:7731H         PUBLIC        CANRXDB
  X:8021H         PUBLIC        fg30S
  X:8022H         PUBLIC        chargeCurKickB_C
  C:89A4H         PUBLIC        CANTXDA
  C:1D0FH         PUBLIC        SaveDataRs1
  X:8023H         PUBLIC        aqPhy
  B:00A8H.7       PUBLIC        EA
  C:89EDH         PUBLIC        CANTXDB
  C:0033H         PUBLIC        SaveDataRs2
  C:5CF5H         PUBLIC        SepCurrentShortCheck
  C:7056H         PUBLIC        SaveDataRs3
  C:7FFFH         PUBLIC        selectAB
  X:804FH         PUBLIC        receiveBufferA
  X:9400H         PUBLIC        rsFrame3
  X:814FH         PUBLIC        fg60S
  X:8150H         PUBLIC        chargeCurrent1
  C:82E7H         PUBLIC        ONOFFManageA
  C:7EE9H         PUBLIC        CanResume
  X:8154H         PUBLIC        receiveBufferB
BL51 BANKED LINKER/LOCATER V6.22.2.0                                                  03/24/2020  19:38:01  PAGE 10


  X:8254H         PUBLIC        fg16S
  X:8255H         PUBLIC        chargeCurrent2
  C:8369H         PUBLIC        ONOFFManageB
  X:8259H         PUBLIC        selfCheckStateContrl
  X:825AH         PUBLIC        equCloseValueB
  X:825EH         PUBLIC        chargeVolKickA_B
  C:86A6H         PUBLIC        DataManageA
  X:825FH         PUBLIC        equCloseValueC
  X:8263H         PUBLIC        chargeVolKickB_B
  X:8264H         PUBLIC        chargeVolKickA_C
  X:8265H         PUBLIC        meaV
  C:86FFH         PUBLIC        DataManageB
  X:8269H         PUBLIC        chargeVolKickB_C
  C:7895H         PUBLIC        _Get2_3_F
  C:8638H         PUBLIC        ImportantDataRx
  X:826AH         PUBLIC        uploadParaData
  C:132CH         PUBLIC        ONOFFHook
  C:8CCBH         PUBLIC        SaveData
  X:826EH         PUBLIC        fgCanBus
  D:00A8H         PUBLIC        IE
  C:8B0AH         PUBLIC        ImportantDataTx
  X:826FH         PUBLIC        wrEquOnoffIndex
  X:8270H         PUBLIC        onoffExeCountB
  X:8271H         PUBLIC        limbCurrent
  C:8000H         PUBLIC        _Get2_3_I
  C:8C4BH         PUBLIC        _ONOFFOutput
  D:0020H         PUBLIC        wrReqIndex
  X:8275H         PUBLIC        onoffExeCountC
  X:8276H         PUBLIC        aqStateContrlB
  X:8278H         PUBLIC        aqStateContrlC
  C:4FC4H         PUBLIC        EquControl
  C:3279H         PUBLIC        DataInit
  X:827AH         PUBLIC        selfCheckState
  X:827BH         PUBLIC        batteryVAWardValueUPB
  X:827FH         PUBLIC        batteryVAWardValueUPC
  B:00B0H.0       PUBLIC        RXDCONTROL
  X:8283H         PUBLIC        singleVWardValueUP
  X:9800H         PUBLIC        onoffBufferRec
  B:00B0H.1       PUBLIC        TXDCONTROL
  C:7E24H         PUBLIC        AutoOnoff
  C:4BC4H         PUBLIC        StateWordBuild
  D:0021H         PUBLIC        receiveFrameA
  X:8287H         PUBLIC        currentPower
  D:0022H         PUBLIC        receiveFrameB
  X:828BH         PUBLIC        dischargeCurrent
  D:00B8H         PUBLIC        IP
  C:6A81H         PUBLIC        SaveImportantDataRs
  X:828FH         PUBLIC        rsImportantFrame
  C:814DH         PUBLIC        _Get2_3_U
  D:0023H         PUBLIC        clockCount
  C:7C1AH         PUBLIC        curCsTab
  C:7BF2H         PUBLIC        singlechargeVolt
  C:81D9H         PUBLIC        SystemInit
  X:83CFH         PUBLIC        selfControlCount
  C:7C2AH         PUBLIC        volSwitchOnoffTabA
  X:83D0H         PUBLIC        accVAEquPyh
  C:7C32H         PUBLIC        volSwitchOnoffTabB
BL51 BANKED LINKER/LOCATER V6.22.2.0                                                  03/24/2020  19:38:01  PAGE 11


  C:880AH         PUBLIC        CAN_ISR
  X:83D4H         PUBLIC        accVBEquPyh
  C:8C2FH         PUBLIC        CANInfoA
  X:83D8H         PUBLIC        filterDataRec
  C:7C22H         PUBLIC        volCsTab
  C:8BF5H         PUBLIC        CANInfoB
  X:8401H         PUBLIC        fgAqCheckA
  X:840AH         PUBLIC        genCurrent
  X:840EH         PUBLIC        fgAqCheckB
  X:8417H         PUBLIC        equOpenValueB
  X:841BH         PUBLIC        equRxCount
  X:841CH         PUBLIC        proportionB
  X:841DH         PUBLIC        equOpenValueC
  C:80C0H         PUBLIC        main
  X:8421H         PUBLIC        batteryVAWardValueDOWNB
  X:8425H         PUBLIC        proportionC
  X:8426H         PUBLIC        equOnoffBuffer
  X:8486H         PUBLIC        aqControlNumber
  X:8487H         PUBLIC        batteryVAWardValueDOWNC
  X:848BH         PUBLIC        overChargeProtectEn
  X:848CH         PUBLIC        equDataBuffer
  X:84B4H         PUBLIC        rsImportantData
  D:0024H         PUBLIC        ramUploadData
  C:7D40H         PUBLIC        _SepCurrentStateCal
  X:8590H         PUBLIC        singleVWardValueDOWN
  X:8594H         PUBLIC        ntrPowerB
  X:8598H         PUBLIC        equ5VP
  X:859AH         PUBLIC        equControlEnB
  X:859BH         PUBLIC        ntrPowerC
  X:859FH         PUBLIC        onoffReceCount
  X:85A0H         PUBLIC        equControlEnC
  X:85A1H         PUBLIC        selfCheckWord
  X:85A2H         PUBLIC        singleVProtectValueUPB
  X:85A6H         PUBLIC        singleVProtectValueUPC
  X:85AAH         PUBLIC        chargeVolKickRsA
  B:0090H.2       PUBLIC        fgRstType
  C:6E6AH         PUBLIC        ChargeCheck
  X:85ABH         PUBLIC        chargeVolKickRsB
  C:8862H         PUBLIC        RamManageA
  C:88B5H         PUBLIC        RamManageB
  C:8BB6H         PUBLIC        GenVolUnderCheck
  X:85ACH         PUBLIC        singleProtectChargeEnB
  X:85ADH         PUBLIC        selfCheckStateWord
  X:85AEH         PUBLIC        singleProtectChargeEnC
  X:85AFH         PUBLIC        resetCount
  C:8957H         PUBLIC        EquWorkCheck
  C:7B7CH         PUBLIC        onoffTab
  D:0098H         PUBLIC        SCON
  D:0089H         PUBLIC        TMOD
  D:0088H         PUBLIC        TCON
  D:002CH         PUBLIC        receiveCountA
  X:85B0H         PUBLIC        fgRsRam
  X:85B1H         PUBLIC        onoffErrorCount
  C:7BC0H         PUBLIC        equAqOffTab
  C:8A36H         PUBLIC        FilterManage
  D:002DH         PUBLIC        receiveCountB
  X:85B2H         PUBLIC        healthStateContr1
BL51 BANKED LINKER/LOCATER V6.22.2.0                                                  03/24/2020  19:38:01  PAGE 12


  D:002EH         PUBLIC        errorCount
  C:8554H         PUBLIC        EQU_ISR
  C:8C11H         PUBLIC        HealthCheck
  X:85B4H         PUBLIC        healthStateContr2
  B:0090H.5       PUBLIC        dog
  C:8AC5H         PUBLIC        EquOnoffHook
  C:4757H         PUBLIC        UploadParaManage
  D:002FH         PUBLIC        pSendA
  X:85B6H         PUBLIC        fgUploadPara
  B:0090H.6       PUBLIC        TXD422En
  X:85B7H         PUBLIC        checkCount1
  D:0031H         PUBLIC        pSendB
  C:7FABH         PUBLIC        AhVolUnderCheck
  X:85B8H         PUBLIC        checkCount2
  X:85B9H         PUBLIC        checkCount3
  X:85BAH         PUBLIC        dischargePower
  X:85BEH         PUBLIC        checkCount4
  X:85BFH         PUBLIC        fgOverChargeprotect
  X:85C0H         PUBLIC        powerSave
  X:85C6H         PUBLIC        equVRef
  X:85C8H         PUBLIC        accVAHard
  X:85CAH         PUBLIC        checkCount5
  X:85CBH         PUBLIC        checkCount6
  X:85CCH         PUBLIC        checkCount7
  X:85CDH         PUBLIC        checkCount8
  X:85CEH         PUBLIC        fgEquRx
  X:85CFH         PUBLIC        reqData
  C:7C3AH         PUBLIC        AqVolCheck
  X:85DBH         PUBLIC        equCloseValue
  X:9000H         PUBLIC        rsFrame1A
  C:8A7FH         PUBLIC        SelfHealthCheck
  C:6433H         PUBLIC        _OnoffSelfExeRec
  C:56A9H         PUBLIC        EquAncollect
  X:85DFH         PUBLIC        singleProtectChargeCount
  X:85E1H         PUBLIC        fgEquTx
  X:9200H         PUBLIC        rsFrame2A
  X:85E2H         PUBLIC        rsFrame1B
  X:8628H         PUBLIC        rsFrame2B
  B:00A8H.1       PUBLIC        ET0
  X:86D2H         PUBLIC        dischargeCurrent1
  X:86D6H         PUBLIC        dischargeCurrent2
  X:86DAH         PUBLIC        singlesaveVLevelA
  X:86DBH         PUBLIC        selfCheckStateContrlB
  X:86DCH         PUBLIC        anData
  X:87A4H         PUBLIC        onoffExeCount
  D:008CH         PUBLIC        TH0
  X:87A5H         PUBLIC        overChargeProCount
  X:87A7H         PUBLIC        singlesaveVLevelB
  X:87A8H         PUBLIC        selfCheckStateContrlC
  B:00A8H.0       PUBLIC        EX0
  B:0088H.0       PUBLIC        IT0
  X:87A9H         PUBLIC        aqStateContrl
  X:87ABH         PUBLIC        rdOnoffIndex
  B:00A8H.2       PUBLIC        EX1
  B:0088H.2       PUBLIC        IT1
  C:8B45H         PUBLIC        GenVolOverCheck
  X:87ACH         PUBLIC        fgOverChargeShort
BL51 BANKED LINKER/LOCATER V6.22.2.0                                                  03/24/2020  19:38:01  PAGE 13


  X:87ADH         PUBLIC        healthStateWord1
  X:87AFH         PUBLIC        aqPhyPx
  B:0090H.4       PUBLIC        onoffEn
  X:87DBH         PUBLIC        batteryVAWardValueUP
  X:87DFH         PUBLIC        healthStateWord2
  X:87E1H         PUBLIC        limbCurrentA
  D:008AH         PUBLIC        TL0
  X:87E5H         PUBLIC        limbCurrentB
  C:8CA5H         PUBLIC        TIMER_ISR
  X:87E9H         PUBLIC        aq
  C:5F7CH         PUBLIC        OverChargeProtect
  C:8758H         PUBLIC        ImportantManageA
  C:42AEH         PUBLIC        _ImportantSaveData
  C:87B1H         PUBLIC        ImportantManageB
  C:6641H         PUBLIC        RsManageA
  C:6861H         PUBLIC        RsManageB
  X:87FFH         PUBLIC        singlesaveflag
  X:8800H         PUBLIC        equ12VN
  X:8802H         PUBLIC        chargeCurrent
  B:0088H.4       PUBLIC        TR0
  X:8806H         PUBLIC        singleVWardValueUPB
  X:880AH         PUBLIC        equ12VP
  C:7BAEH         PUBLIC        equAqOnTab
  X:880CH         PUBLIC        singleVWardValueUPC
  X:8810H         PUBLIC        chargeArrayCurrent
  C:2C8BH         PUBLIC        ANCollect
  X:8838H         PUBLIC        fgImportantDataRx
  D:0033H         PUBLIC        sendFrameA
  C:8B7EH         PUBLIC        AhVolOverCheck
  D:0034H         PUBLIC        sendFrameB
  X:8839H         PUBLIC        currentModeCountA
  X:883CH         PUBLIC        currentModeCountB
  X:883FH         PUBLIC        fgCheck1
  D:0035H         PUBLIC        receiveSumA
  X:8840H         PUBLIC        chargeCurKickA
  X:8841H         PUBLIC        fgCheck2
  D:0037H         PUBLIC        receiveSumB
  X:9600H         PUBLIC        ramTestData
  X:8842H         PUBLIC        wrOnoffIndex
  X:8843H         PUBLIC        chargeCurKickB
  C:3DE5H         PUBLIC        DataProtect
  X:8844H         PUBLIC        fgCheck3
  X:8845H         PUBLIC        equOpenValue
  X:8849H         PUBLIC        fgCheck4
  X:884AH         PUBLIC        proportion
  X:884BH         PUBLIC        fgCheck5
  X:884CH         PUBLIC        batteryVAWardValueDOWN
  X:8850H         PUBLIC        fgCheck6
  X:8851H         PUBLIC        fgCheck7
  X:8852H         PUBLIC        ntrPower
  X:8856H         PUBLIC        fgCheck8
  X:8857H         PUBLIC        equControlEn
  X:8858H         PUBLIC        chargeVolKickA
  D:00C8H         PUBLIC        T2CON
  X:8859H         PUBLIC        sepCurrentState1
  X:885AH         PUBLIC        chargeVolKickB
  C:8267H         PUBLIC        _CANInit
BL51 BANKED LINKER/LOCATER V6.22.2.0                                                  03/24/2020  19:38:01  PAGE 14


  X:885BH         PUBLIC        sepCurrentState2
  D:0039H         PUBLIC        sendIndexA
  X:885CH         PUBLIC        chargeFlag
  X:885DH         PUBLIC        singleVProtectValueUP
  X:8861H         PUBLIC        overChargeProtectEnB
  X:8862H         PUBLIC        sepCurrentState3
  D:003AH         PUBLIC        sendIndexB
  C:79E0H         PUBLIC        _ADConvert
  X:8863H         PUBLIC        singleVWardValueDOWNB
  X:8867H         PUBLIC        overChargeProtectEnC
  X:8868H         PUBLIC        sepCurrentState4
  C:7BD2H         PUBLIC        volTab
  X:8869H         PUBLIC        singleVWardValueDOWNC
  X:886DH         PUBLIC        importDataRxState
  X:886EH         PUBLIC        onoffReceCountB
  X:886FH         PUBLIC        accEquVA
  X:8871H         PUBLIC        onoffReceCountC
  X:8872H         PUBLIC        fgOverChargePro
  X:8873H         PUBLIC        accEquVB
  X:8875H         PUBLIC        selfCheckWordB
  X:8876H         PUBLIC        singleProtectChargeEn
  X:8877H         PUBLIC        selfCheckWordC
  C:7C12H         PUBLIC        volKickTab
  C:61E3H         PUBLIC        HealthStateWordBuild
  C:8C83H         PUBLIC        _Delay
  X:8878H         PUBLIC        AhCount16S
  X:887AH         PUBLIC        sysTime
  X:887EH         PUBLIC        generatrixVol
  X:8882H         PUBLIC        fgSwitch1
  X:8883H         PUBLIC        resetCountB
  X:8884H         PUBLIC        equVRefPhy
  X:8888H         PUBLIC        accVAHardPyh
  C:5346H         PUBLIC        PowerControl
  C:7410H         PUBLIC        SaveRamDataRs
  X:888CH         PUBLIC        rsRamFrame
  X:894AH         PUBLIC        fgSwitch2
  X:894BH         PUBLIC        resetCountC
  X:894CH         PUBLIC        fgAh
  C:8468H         PUBLIC        TimeBcA
  C:723AH         PUBLIC        FilterDataComp
  C:6C76H         PUBLIC        _FilterSaveData
  X:894DH         PUBLIC        filterFrame
  X:8976H         PUBLIC        onoffErrorCountB
  C:84DEH         PUBLIC        TimeBcB
  X:8977H         PUBLIC        onoffBuffer
  X:89A7H         PUBLIC        onoffErrorCountC
  D:00D0H         PUBLIC        PSW
  X:89A8H         PUBLIC        rdEquOnoffIndex
  X:89A9H         PUBLIC        errorCountA
  X:89AAH         PUBLIC        healthStateContr1B
  D:003BH         PUBLIC        rdReqIndex
  X:89ACH         PUBLIC        errorCountB
  X:89ADH         PUBLIC        chargeArrayCount
  X:89B7H         PUBLIC        healthStateContr2B
  X:89B9H         PUBLIC        healthStateContr1C
  X:89BBH         PUBLIC        equExeCount
  X:89C4H         PUBLIC        wrOnoffRecIndex
BL51 BANKED LINKER/LOCATER V6.22.2.0                                                  03/24/2020  19:38:01  PAGE 15


  B:0090H.0       PUBLIC        RXD422AEn
  -------         PROC          MAIN
  -------         DO            
  D:003CH         SYMBOL        fg4S
  D:003DH         SYMBOL        clockCountTemp
  -------         ENDDO         
  C:80C0H         LINE#         833
  C:80C0H         LINE#         834
  C:80C0H         LINE#         838
  C:80C3H         LINE#         840
  C:80C3H         LINE#         841
  C:80C3H         LINE#         842
  C:80C5H         LINE#         844
  C:80C7H         LINE#         846
  C:80CAH         LINE#         847
  C:80CDH         LINE#         849
  C:80D0H         LINE#         850
  C:80D3H         LINE#         851
  C:80DAH         LINE#         852
  C:80DDH         LINE#         854
  C:80E0H         LINE#         855
  C:80E3H         LINE#         857
  C:80E6H         LINE#         859
  C:80F1H         LINE#         860
  C:80F1H         LINE#         861
  C:80F4H         LINE#         862
  C:80F7H         LINE#         863
  C:80FAH         LINE#         864
  C:80FDH         LINE#         865
  C:80FDH         LINE#         867
  C:8100H         LINE#         868
  C:8103H         LINE#         870
  C:8106H         LINE#         871
  C:8109H         LINE#         873
  C:810CH         LINE#         874
  C:810FH         LINE#         875
  C:8111H         LINE#         877
  C:8114H         LINE#         879
  C:8116H         LINE#         880
  C:8122H         LINE#         881
  C:8122H         LINE#         882
  C:8125H         LINE#         883
  C:8127H         LINE#         884
  C:8129H         LINE#         885
  C:812FH         LINE#         886
  C:8148H         LINE#         887
  C:814AH         LINE#         888
  -------         ENDPROC       MAIN
  C:8C7FH         SYMBOL        L?1284
  -------         PROC          L?1283
  -------         ENDPROC       L?1283
  C:8C7FH         SYMBOL        L?1284
  -------         PROC          _DELAY
  D:0006H         SYMBOL        time
  -------         DO            
  D:0004H         SYMBOL        k
  -------         ENDDO         
BL51 BANKED LINKER/LOCATER V6.22.2.0                                                  03/24/2020  19:38:01  PAGE 16


  C:8C83H         LINE#         895
  C:8C83H         LINE#         896
  C:8C83H         LINE#         899
  C:8C8DH         LINE#         900
  C:8C8DH         LINE#         901
  C:8C8EH         LINE#         902
  C:8C95H         LINE#         903
  -------         ENDPROC       _DELAY
  -------         PROC          DATAPROTECT
  -------         DO            
  D:0003H         SYMBOL        result1
  -------         ENDDO         
  C:3DE5H         LINE#         909
  C:3DE5H         LINE#         910
  C:3DE5H         LINE#         913
  C:3E02H         LINE#         914
  C:3E07H         LINE#         915
  C:3E07H         LINE#         916
  C:3E0BH         LINE#         917
  C:3E0FH         LINE#         918
  C:3E13H         LINE#         919
  C:3E13H         LINE#         921
  C:3E30H         LINE#         922
  C:3E35H         LINE#         923
  C:3E35H         LINE#         924
  C:3E39H         LINE#         925
  C:3E3DH         LINE#         926
  C:3E41H         LINE#         927
  C:3E41H         LINE#         929
  C:3E5EH         LINE#         930
  C:3E63H         LINE#         931
  C:3E63H         LINE#         932
  C:3E67H         LINE#         933
  C:3E6BH         LINE#         934
  C:3E6FH         LINE#         935
  C:3E6FH         LINE#         937
  C:3E8CH         LINE#         938
  C:3E91H         LINE#         939
  C:3E91H         LINE#         940
  C:3E95H         LINE#         941
  C:3E99H         LINE#         942
  C:3E9DH         LINE#         943
  C:3E9DH         LINE#         945
  C:3EBAH         LINE#         946
  C:3EBFH         LINE#         947
  C:3EBFH         LINE#         948
  C:3EC5H         LINE#         949
  C:3EC9H         LINE#         950
  C:3ECDH         LINE#         951
  C:3ECDH         LINE#         953
  C:3EEAH         LINE#         954
  C:3EEFH         LINE#         955
  C:3EEFH         LINE#         956
  C:3EF5H         LINE#         957
  C:3EF9H         LINE#         958
  C:3EFDH         LINE#         959
  C:3EFDH         LINE#         961
BL51 BANKED LINKER/LOCATER V6.22.2.0                                                  03/24/2020  19:38:01  PAGE 17


  C:3F1AH         LINE#         962
  C:3F1FH         LINE#         963
  C:3F1FH         LINE#         964
  C:3F25H         LINE#         965
  C:3F29H         LINE#         966
  C:3F2DH         LINE#         967
  C:3F2DH         LINE#         969
  C:3F4AH         LINE#         970
  C:3F4FH         LINE#         971
  C:3F4FH         LINE#         972
  C:3F55H         LINE#         973
  C:3F59H         LINE#         974
  C:3F5DH         LINE#         975
  C:3F5DH         LINE#         977
  C:3F7AH         LINE#         978
  C:3F7FH         LINE#         979
  C:3F7FH         LINE#         980
  C:3F89H         LINE#         981
  C:3F93H         LINE#         982
  C:3F9DH         LINE#         983
  C:3F9DH         LINE#         985
  C:3FBAH         LINE#         986
  C:3FBFH         LINE#         987
  C:3FBFH         LINE#         988
  C:3FC9H         LINE#         989
  C:3FD3H         LINE#         990
  C:3FDDH         LINE#         991
  C:3FDDH         LINE#         993
  C:3FFAH         LINE#         994
  C:3FFFH         LINE#         995
  C:3FFFH         LINE#         996
  C:4005H         LINE#         997
  C:4009H         LINE#         998
  C:400DH         LINE#         999
  C:400DH         LINE#         1001
  C:402AH         LINE#         1002
  C:402FH         LINE#         1003
  C:402FH         LINE#         1004
  C:4035H         LINE#         1005
  C:4039H         LINE#         1006
  C:403DH         LINE#         1007
  C:403DH         LINE#         1009
  C:405AH         LINE#         1010
  C:405FH         LINE#         1011
  C:405FH         LINE#         1012
  C:4067H         LINE#         1013
  C:406DH         LINE#         1014
  C:4071H         LINE#         1015
  C:4071H         LINE#         1017
  C:408EH         LINE#         1018
  C:4093H         LINE#         1019
  C:4093H         LINE#         1020
  C:409BH         LINE#         1021
  C:40A1H         LINE#         1022
  C:40A7H         LINE#         1023
  C:40A7H         LINE#         1025
  C:40C4H         LINE#         1026
BL51 BANKED LINKER/LOCATER V6.22.2.0                                                  03/24/2020  19:38:01  PAGE 18


  C:40C9H         LINE#         1027
  C:40C9H         LINE#         1028
  C:40D1H         LINE#         1029
  C:40D7H         LINE#         1030
  C:40DDH         LINE#         1031
  C:40DDH         LINE#         1033
  C:40FAH         LINE#         1034
  C:40FFH         LINE#         1035
  C:40FFH         LINE#         1036
  C:4105H         LINE#         1037
  C:4109H         LINE#         1038
  C:410DH         LINE#         1039
  C:410DH         LINE#         1041
  C:412AH         LINE#         1042
  C:412FH         LINE#         1043
  C:412FH         LINE#         1044
  C:4135H         LINE#         1045
  C:4139H         LINE#         1046
  C:413DH         LINE#         1047
  C:413DH         LINE#         1049
  C:415AH         LINE#         1050
  C:415FH         LINE#         1051
  C:415FH         LINE#         1052
  C:4165H         LINE#         1053
  C:4169H         LINE#         1054
  C:416DH         LINE#         1055
  C:416DH         LINE#         1057
  C:418AH         LINE#         1058
  C:418FH         LINE#         1059
  C:418FH         LINE#         1060
  C:4199H         LINE#         1061
  C:41A3H         LINE#         1062
  C:41ADH         LINE#         1063
  C:41ADH         LINE#         1065
  C:41CAH         LINE#         1066
  C:41CFH         LINE#         1067
  C:41CFH         LINE#         1068
  C:41D9H         LINE#         1069
  C:41E3H         LINE#         1070
  C:41EDH         LINE#         1071
  C:41EDH         LINE#         1073
  C:420AH         LINE#         1074
  C:420FH         LINE#         1075
  C:420FH         LINE#         1076
  C:4219H         LINE#         1077
  C:4223H         LINE#         1078
  C:422DH         LINE#         1079
  C:422DH         LINE#         1081
  C:424AH         LINE#         1082
  C:424FH         LINE#         1083
  C:424FH         LINE#         1084
  C:4259H         LINE#         1085
  C:4263H         LINE#         1086
  C:426DH         LINE#         1087
  C:426DH         LINE#         1089
  C:428AH         LINE#         1090
  C:428FH         LINE#         1091
BL51 BANKED LINKER/LOCATER V6.22.2.0                                                  03/24/2020  19:38:01  PAGE 19


  C:428FH         LINE#         1092
  C:4299H         LINE#         1093
  C:42A3H         LINE#         1094
  C:42ADH         LINE#         1095
  C:42ADH         LINE#         1096
  -------         ENDPROC       DATAPROTECT
  -------         PROC          SYSTEMINIT
  C:81D9H         LINE#         1102
  C:81D9H         LINE#         1103
  C:81D9H         LINE#         1104
  C:81DBH         LINE#         1105
  C:81DDH         LINE#         1107
  C:81E3H         LINE#         1108
  C:81E5H         LINE#         1109
  C:81E7H         LINE#         1111
  C:81E9H         LINE#         1112
  C:81EBH         LINE#         1113
  C:81EDH         LINE#         1114
  C:81EFH         LINE#         1116
  C:81F4H         LINE#         1117
  C:81F8H         LINE#         1118
  C:81FCH         LINE#         1119
  C:8200H         LINE#         1121
  C:8202H         LINE#         1122
  C:8205H         LINE#         1123
  C:8205H         LINE#         1124
  C:820BH         LINE#         1125
  C:820FH         LINE#         1127
  C:8210H         LINE#         1128
  C:8210H         LINE#         1129
  C:8212H         LINE#         1131
  C:8212H         LINE#         1132
  C:8217H         LINE#         1133
  C:821BH         LINE#         1134
  C:821FH         LINE#         1135
  C:821FH         LINE#         1137
  C:8222H         LINE#         1139
  C:8224H         LINE#         1140
  C:8227H         LINE#         1141
  C:8229H         LINE#         1143
  C:822CH         LINE#         1144
  C:822FH         LINE#         1145
  C:8232H         LINE#         1146
  C:8235H         LINE#         1148
  C:823CH         LINE#         1149
  C:823FH         LINE#         1151
  C:8246H         LINE#         1152
  C:8249H         LINE#         1154
  C:824CH         LINE#         1156
  C:824FH         LINE#         1157
  C:8256H         LINE#         1158
  C:8259H         LINE#         1159
  C:825CH         LINE#         1161
  C:825EH         LINE#         1163
  -------         ENDPROC       SYSTEMINIT
  -------         PROC          DATAINIT
  -------         DO            
BL51 BANKED LINKER/LOCATER V6.22.2.0                                                  03/24/2020  19:38:01  PAGE 20


  D:0002H         SYMBOL        i
  D:003EH         SYMBOL        j
  -------         ENDDO         
  C:3279H         LINE#         1170
  C:3279H         LINE#         1171
  C:3279H         LINE#         1175
  C:327CH         LINE#         1176
  C:327EH         LINE#         1178
  C:3282H         LINE#         1179
  C:3286H         LINE#         1180
  C:328AH         LINE#         1182
  C:328EH         LINE#         1183
  C:3292H         LINE#         1185
  C:3296H         LINE#         1186
  C:329AH         LINE#         1187
  C:329EH         LINE#         1189
  C:32A2H         LINE#         1190
  C:32A6H         LINE#         1191
  C:32AAH         LINE#         1193
  C:32AEH         LINE#         1194
  C:32B2H         LINE#         1195
  C:32B6H         LINE#         1197
  C:32BCH         LINE#         1199
  C:32C2H         LINE#         1200
  C:32C6H         LINE#         1202
  C:32CBH         LINE#         1203
  C:32CFH         LINE#         1205
  C:32D9H         LINE#         1207
  C:32E3H         LINE#         1208
  C:32EDH         LINE#         1209
  C:32F7H         LINE#         1211
  C:3301H         LINE#         1212
  C:330BH         LINE#         1213
  C:3315H         LINE#         1215
  C:331FH         LINE#         1216
  C:3329H         LINE#         1217
  C:3333H         LINE#         1218
  C:333DH         LINE#         1219
  C:3347H         LINE#         1221
  C:334DH         LINE#         1222
  C:3351H         LINE#         1223
  C:3355H         LINE#         1225
  C:3359H         LINE#         1226
  C:335FH         LINE#         1227
  C:3363H         LINE#         1229
  C:3369H         LINE#         1231
  C:336CH         LINE#         1232
  C:336CH         LINE#         1233
  C:3388H         LINE#         1234
  C:3394H         LINE#         1235
  C:339FH         LINE#         1237
  C:33A5H         LINE#         1238
  C:33A9H         LINE#         1239
  C:33ADH         LINE#         1241
  C:33B1H         LINE#         1242
  C:33B5H         LINE#         1243
  C:33B9H         LINE#         1245
BL51 BANKED LINKER/LOCATER V6.22.2.0                                                  03/24/2020  19:38:01  PAGE 21


  C:33BDH         LINE#         1246
  C:33C1H         LINE#         1247
  C:33C5H         LINE#         1249
  C:33C9H         LINE#         1250
  C:33CDH         LINE#         1251
  C:33D1H         LINE#         1253
  C:33D5H         LINE#         1254
  C:33D7H         LINE#         1256
  C:33DAH         LINE#         1257
  C:33DAH         LINE#         1258
  C:33E6H         LINE#         1259
  C:33F2H         LINE#         1260
  C:33FDH         LINE#         1262
  C:3400H         LINE#         1263
  C:3400H         LINE#         1264
  C:3410H         LINE#         1265
  C:341BH         LINE#         1267
  C:3421H         LINE#         1268
  C:3426H         LINE#         1270
  C:3427H         LINE#         1271
  C:3427H         LINE#         1272
  C:3431H         LINE#         1273
  C:3431H         LINE#         1275
  C:3436H         LINE#         1276
  C:3438H         LINE#         1277
  C:343AH         LINE#         1278
  C:343EH         LINE#         1280
  C:3442H         LINE#         1281
  C:3444H         LINE#         1282
  C:3446H         LINE#         1283
  C:3448H         LINE#         1285
  C:344EH         LINE#         1287
  C:3453H         LINE#         1288
  C:3457H         LINE#         1289
  C:3459H         LINE#         1290
  C:3459H         LINE#         1291
  C:346CH         LINE#         1292
  C:3478H         LINE#         1293
  C:3483H         LINE#         1295
  C:3488H         LINE#         1296
  C:348AH         LINE#         1297
  C:348AH         LINE#         1298
  C:348FH         LINE#         1299
  C:348FH         LINE#         1300
  C:34B9H         LINE#         1301
  C:34C7H         LINE#         1302
  C:34D2H         LINE#         1304
  C:34D8H         LINE#         1305
  C:34DAH         LINE#         1306
  C:34DAH         LINE#         1307
  C:34E3H         LINE#         1308
  C:34E3H         LINE#         1310
  C:34E5H         LINE#         1311
  C:34E5H         LINE#         1312
  C:34EFH         LINE#         1313
  C:34EFH         LINE#         1314
  C:34F2H         LINE#         1315
BL51 BANKED LINKER/LOCATER V6.22.2.0                                                  03/24/2020  19:38:01  PAGE 22


  C:34F4H         LINE#         1317
  C:34FAH         LINE#         1318
  C:3500H         LINE#         1319
  C:3506H         LINE#         1321
  C:3510H         LINE#         1322
  C:351AH         LINE#         1323
  C:3524H         LINE#         1324
  C:352EH         LINE#         1326
  C:3535H         LINE#         1327
  C:353BH         LINE#         1328
  C:3541H         LINE#         1329
  C:3547H         LINE#         1331
  C:3551H         LINE#         1332
  C:355BH         LINE#         1333
  C:3565H         LINE#         1335
  C:356FH         LINE#         1336
  C:3579H         LINE#         1337
  C:3583H         LINE#         1339
  C:358DH         LINE#         1340
  C:3597H         LINE#         1341
  C:35A1H         LINE#         1343
  C:35ABH         LINE#         1344
  C:35B5H         LINE#         1345
  C:35BFH         LINE#         1347
  C:35C9H         LINE#         1348
  C:35D3H         LINE#         1349
  C:35DDH         LINE#         1351
  C:35E7H         LINE#         1352
  C:35F1H         LINE#         1353
  C:35FBH         LINE#         1355
  C:3605H         LINE#         1356
  C:360FH         LINE#         1357
  C:3619H         LINE#         1359
  C:361EH         LINE#         1360
  C:3622H         LINE#         1361
  C:3624H         LINE#         1362
  C:3624H         LINE#         1363
  C:3639H         LINE#         1364
  C:3644H         LINE#         1366
  C:364AH         LINE#         1367
  C:364EH         LINE#         1368
  C:3651H         LINE#         1369
  C:3651H         LINE#         1370
  C:3666H         LINE#         1371
  C:3671H         LINE#         1373
  C:3676H         LINE#         1374
  C:3677H         LINE#         1375
  C:3677H         LINE#         1376
  C:3681H         LINE#         1377
  C:3681H         LINE#         1379
  C:3683H         LINE#         1380
  C:3683H         LINE#         1381
  C:368DH         LINE#         1382
  C:368DH         LINE#         1384
  C:3695H         LINE#         1385
  C:369BH         LINE#         1386
  C:369FH         LINE#         1388
BL51 BANKED LINKER/LOCATER V6.22.2.0                                                  03/24/2020  19:38:01  PAGE 23


  C:36A4H         LINE#         1389
  C:36A8H         LINE#         1390
  C:36ACH         LINE#         1391
  C:36B0H         LINE#         1393
  C:36BAH         LINE#         1394
  C:36C4H         LINE#         1395
  C:36CEH         LINE#         1397
  C:36D8H         LINE#         1398
  C:36E2H         LINE#         1399
  C:36ECH         LINE#         1401
  C:3710H         LINE#         1402
  C:3713H         LINE#         1403
  C:3716H         LINE#         1404
  C:3718H         LINE#         1405
  C:371AH         LINE#         1406
  C:371CH         LINE#         1408
  C:3722H         LINE#         1409
  C:3726H         LINE#         1410
  C:372AH         LINE#         1412
  C:372FH         LINE#         1414
  C:3733H         LINE#         1416
  C:3739H         LINE#         1417
  C:373DH         LINE#         1418
  C:3741H         LINE#         1420
  C:3748H         LINE#         1421
  C:374EH         LINE#         1423
  C:3756H         LINE#         1424
  C:375CH         LINE#         1425
  C:3762H         LINE#         1427
  C:3768H         LINE#         1428
  C:376EH         LINE#         1429
  C:3774H         LINE#         1431
  C:377AH         LINE#         1432
  C:377EH         LINE#         1433
  C:3782H         LINE#         1435
  C:3788H         LINE#         1436
  C:378CH         LINE#         1437
  C:3790H         LINE#         1439
  C:3794H         LINE#         1440
  C:3798H         LINE#         1441
  C:379CH         LINE#         1443
  C:37A0H         LINE#         1444
  C:37A6H         LINE#         1446
  C:37A9H         LINE#         1447
  C:37A9H         LINE#         1448
  C:37B5H         LINE#         1449
  C:37C1H         LINE#         1450
  C:37CCH         LINE#         1452
  C:37D1H         LINE#         1453
  C:37D3H         LINE#         1454
  C:37D5H         LINE#         1455
  C:37D9H         LINE#         1456
  C:37DDH         LINE#         1457
  C:37DFH         LINE#         1458
  C:37E1H         LINE#         1459
  C:37E3H         LINE#         1461
  C:37E9H         LINE#         1462
BL51 BANKED LINKER/LOCATER V6.22.2.0                                                  03/24/2020  19:38:01  PAGE 24


  C:37EDH         LINE#         1463
  C:37F1H         LINE#         1464
  C:37F5H         LINE#         1465
  C:37F9H         LINE#         1466
  C:37FDH         LINE#         1467
  C:37FFH         LINE#         1468
  C:3803H         LINE#         1470
  C:3806H         LINE#         1471
  C:3806H         LINE#         1472
  C:3812H         LINE#         1473
  C:381EH         LINE#         1475
  C:382BH         LINE#         1476
  C:3838H         LINE#         1477
  C:3843H         LINE#         1479
  C:384AH         LINE#         1480
  C:3850H         LINE#         1482
  C:385AH         LINE#         1483
  -------         ENDPROC       DATAINIT
  -------         PROC          AUTOONOFF
  C:7E24H         LINE#         1491
  C:7E24H         LINE#         1492
  C:7E24H         LINE#         1493
  C:7E2DH         LINE#         1494
  C:7E30H         LINE#         1495
  C:7E32H         LINE#         1497
  C:7E3BH         LINE#         1498
  C:7E3EH         LINE#         1499
  C:7E40H         LINE#         1501
  C:7E49H         LINE#         1502
  C:7E4CH         LINE#         1503
  C:7E4EH         LINE#         1505
  C:7E57H         LINE#         1506
  C:7E5AH         LINE#         1507
  C:7E5CH         LINE#         1509
  C:7E61H         LINE#         1510
  C:7E64H         LINE#         1511
  C:7E66H         LINE#         1513
  C:7E6BH         LINE#         1514
  C:7E6EH         LINE#         1515
  C:7E70H         LINE#         1517
  C:7E75H         LINE#         1518
  C:7E78H         LINE#         1519
  C:7E7AH         LINE#         1521
  C:7E7FH         LINE#         1522
  C:7E82H         LINE#         1523
  C:7E84H         LINE#         1525
  C:7E89H         LINE#         1526
  C:7E8CH         LINE#         1527
  C:7E8EH         LINE#         1529
  C:7E93H         LINE#         1530
  C:7E96H         LINE#         1531
  C:7E98H         LINE#         1533
  C:7E9DH         LINE#         1534
  C:7EA0H         LINE#         1535
  C:7EA2H         LINE#         1537
  C:7EA7H         LINE#         1538
  C:7EAAH         LINE#         1539
BL51 BANKED LINKER/LOCATER V6.22.2.0                                                  03/24/2020  19:38:01  PAGE 25


  C:7EACH         LINE#         1541
  C:7EB1H         LINE#         1542
  C:7EB4H         LINE#         1543
  C:7EB6H         LINE#         1545
  C:7EBBH         LINE#         1546
  C:7EBEH         LINE#         1547
  C:7EC0H         LINE#         1549
  C:7EC5H         LINE#         1550
  C:7EC8H         LINE#         1551
  C:7ECAH         LINE#         1553
  C:7ECFH         LINE#         1554
  C:7ED2H         LINE#         1555
  C:7ED4H         LINE#         1557
  C:7ED9H         LINE#         1558
  C:7EDCH         LINE#         1559
  C:7EDEH         LINE#         1561
  C:7EE3H         LINE#         1562
  C:7EE6H         LINE#         1563
  C:7EE8H         LINE#         1564
  -------         ENDPROC       AUTOONOFF
  C:8261H         SYMBOL        L?1286
  C:8263H         SYMBOL        L?1287
  -------         PROC          L?1285
  -------         ENDPROC       L?1285
  C:8261H         SYMBOL        L?1286
  C:8263H         SYMBOL        L?1287
  -------         PROC          _CANINIT
  D:0002H         SYMBOL        address
  -------         DO            
  D:0007H         SYMBOL        temp
  -------         ENDDO         
  C:8267H         LINE#         1570
  C:826BH         LINE#         1571
  C:826BH         LINE#         1574
  C:8272H         LINE#         1575
  C:8279H         LINE#         1576
  C:827DH         LINE#         1577
  C:8289H         LINE#         1578
  C:8295H         LINE#         1579
  C:82A0H         LINE#         1580
  C:82ACH         LINE#         1581
  C:82B8H         LINE#         1582
  C:82C4H         LINE#         1584
  C:82CBH         LINE#         1585
  C:82D0H         LINE#         1586
  C:82D3H         LINE#         1588
  C:82D6H         LINE#         1589
  C:82E2H         LINE#         1590
  -------         ENDPROC       _CANINIT
  -------         PROC          CPUINIT
  C:8C66H         LINE#         1597
  C:8C66H         LINE#         1598
  C:8C66H         LINE#         1599
  C:8C69H         LINE#         1600
  C:8C6BH         LINE#         1601
  C:8C6DH         LINE#         1603
  C:8C70H         LINE#         1604
BL51 BANKED LINKER/LOCATER V6.22.2.0                                                  03/24/2020  19:38:01  PAGE 26


  C:8C73H         LINE#         1605
  C:8C76H         LINE#         1606
  C:8C78H         LINE#         1608
  C:8C7AH         LINE#         1609
  C:8C7CH         LINE#         1610
  C:8C7EH         LINE#         1611
  -------         ENDPROC       CPUINIT
  -------         PROC          ANCOLLECT
  -------         DO            
  D:003EH         SYMBOL        i
  -------         ENDDO         
  C:2C8BH         LINE#         1617
  C:2C8BH         LINE#         1618
  C:2C8BH         LINE#         1621
  C:2C8EH         LINE#         1623
  C:2C9CH         LINE#         1624
  C:2C9CH         LINE#         1625
  C:2CB8H         LINE#         1626
  C:2CBCH         LINE#         1628
  C:2D03H         LINE#         1629
  C:2D15H         LINE#         1630
  C:2D15H         LINE#         1631
  C:2D1FH         LINE#         1632
  C:2D1FH         LINE#         1634
  C:2D66H         LINE#         1635
  C:2D78H         LINE#         1636
  C:2D78H         LINE#         1637
  C:2D82H         LINE#         1638
  C:2D82H         LINE#         1640
  C:2D97H         LINE#         1642
  C:2E32H         LINE#         1643
  C:2E44H         LINE#         1644
  C:2E44H         LINE#         1645
  C:2E4EH         LINE#         1646
  C:2E4EH         LINE#         1648
  C:2E6BH         LINE#         1649
  C:2E7DH         LINE#         1650
  C:2E7DH         LINE#         1651
  C:2E87H         LINE#         1652
  C:2E87H         LINE#         1653
  C:2EA4H         LINE#         1654
  C:2EB6H         LINE#         1655
  C:2EB6H         LINE#         1656
  C:2EC0H         LINE#         1657
  C:2EC0H         LINE#         1658
  C:2ED5H         LINE#         1660
  C:2EF2H         LINE#         1661
  C:2F04H         LINE#         1662
  C:2F04H         LINE#         1663
  C:2F0EH         LINE#         1664
  C:2F0EH         LINE#         1665
  C:2F2BH         LINE#         1666
  C:2F3DH         LINE#         1667
  C:2F3DH         LINE#         1668
  C:2F47H         LINE#         1669
  C:2F47H         LINE#         1670
  C:2F5CH         LINE#         1672
BL51 BANKED LINKER/LOCATER V6.22.2.0                                                  03/24/2020  19:38:01  PAGE 27


  C:2F79H         LINE#         1673
  C:2F8BH         LINE#         1674
  C:2F8BH         LINE#         1675
  C:2F95H         LINE#         1676
  C:2F95H         LINE#         1678
  C:2FB2H         LINE#         1679
  C:2FC4H         LINE#         1680
  C:2FC4H         LINE#         1681
  C:2FCEH         LINE#         1682
  C:2FCEH         LINE#         1684
  C:2FDEH         LINE#         1686
  C:2FF6H         LINE#         1687
  C:3008H         LINE#         1688
  C:3008H         LINE#         1689
  C:3012H         LINE#         1690
  C:3012H         LINE#         1692
  C:302FH         LINE#         1693
  C:3041H         LINE#         1694
  C:3041H         LINE#         1695
  C:304BH         LINE#         1696
  C:304BH         LINE#         1697
  C:3068H         LINE#         1698
  C:307AH         LINE#         1699
  C:307AH         LINE#         1700
  C:3084H         LINE#         1701
  C:3084H         LINE#         1702
  C:30A1H         LINE#         1703
  C:30B3H         LINE#         1704
  C:30B3H         LINE#         1705
  C:30BDH         LINE#         1706
  C:30BDH         LINE#         1707
  C:30DAH         LINE#         1708
  C:30ECH         LINE#         1709
  C:30ECH         LINE#         1710
  C:30F6H         LINE#         1711
  C:30F6H         LINE#         1712
  C:3113H         LINE#         1713
  C:3125H         LINE#         1714
  C:3125H         LINE#         1715
  C:312FH         LINE#         1716
  C:312FH         LINE#         1718
  C:314CH         LINE#         1719
  C:315EH         LINE#         1720
  C:315EH         LINE#         1721
  C:3168H         LINE#         1722
  C:3168H         LINE#         1723
  C:3185H         LINE#         1724
  C:3197H         LINE#         1725
  C:3197H         LINE#         1726
  C:31A1H         LINE#         1727
  C:31A1H         LINE#         1728
  C:31BEH         LINE#         1729
  C:31D0H         LINE#         1730
  C:31D0H         LINE#         1731
  C:31DAH         LINE#         1732
  C:31DAH         LINE#         1733
  C:31F7H         LINE#         1734
BL51 BANKED LINKER/LOCATER V6.22.2.0                                                  03/24/2020  19:38:01  PAGE 28


  C:3209H         LINE#         1735
  C:3209H         LINE#         1736
  C:3213H         LINE#         1737
  C:3213H         LINE#         1738
  C:3230H         LINE#         1739
  C:3242H         LINE#         1740
  C:3242H         LINE#         1741
  C:324CH         LINE#         1742
  C:324CH         LINE#         1744
  C:3257H         LINE#         1745
  C:3262H         LINE#         1746
  C:326DH         LINE#         1747
  C:3278H         LINE#         1748
  -------         ENDPROC       ANCOLLECT
  -------         PROC          EQUANCOLLECT
  -------         DO            
  D:003FH         SYMBOL        i
  D:0040H         SYMBOL        j
  D:0041H         SYMBOL        tempU
  D:0042H         SYMBOL        tempF
  -------         ENDDO         
  C:56A9H         LINE#         1754
  C:56A9H         LINE#         1755
  C:56A9H         LINE#         1761
  C:56B7H         LINE#         1762
  C:56B7H         LINE#         1763
  C:56C4H         LINE#         1764
  C:56C8H         LINE#         1766
  C:56CAH         LINE#         1767
  C:56CFH         LINE#         1769
  C:56D5H         LINE#         1770
  C:56DBH         LINE#         1771
  C:56DDH         LINE#         1772
  C:56DFH         LINE#         1774
  C:56E1H         LINE#         1775
  C:56E8H         LINE#         1776
  C:56EAH         LINE#         1778
  C:56F8H         LINE#         1779
  C:56F8H         LINE#         1780
  C:5731H         LINE#         1781
  C:5735H         LINE#         1783
  C:574CH         LINE#         1784
  C:5761H         LINE#         1785
  C:5776H         LINE#         1786
  C:578BH         LINE#         1787
  C:57A0H         LINE#         1788
  C:57B6H         LINE#         1790
  C:57CEH         LINE#         1791
  C:57EBH         LINE#         1792
  C:5808H         LINE#         1794
  C:5825H         LINE#         1795
  C:5842H         LINE#         1796
  C:585FH         LINE#         1797
  C:587CH         LINE#         1798
  C:5899H         LINE#         1799
  C:58B6H         LINE#         1800
  C:58D3H         LINE#         1801
BL51 BANKED LINKER/LOCATER V6.22.2.0                                                  03/24/2020  19:38:01  PAGE 29


  C:58F0H         LINE#         1802
  C:590DH         LINE#         1804
  C:591BH         LINE#         1805
  C:591BH         LINE#         1806
  C:593FH         LINE#         1807
  C:5943H         LINE#         1809
  C:5954H         LINE#         1810
  C:5954H         LINE#         1811
  C:5966H         LINE#         1812
  C:5966H         LINE#         1813
  C:5995H         LINE#         1814
  C:5995H         LINE#         1815
  C:59B2H         LINE#         1816
  C:59D5H         LINE#         1817
  C:59EFH         LINE#         1818
  C:59EFH         LINE#         1819
  C:59F4H         LINE#         1820
  C:59F9H         LINE#         1821
  -------         ENDPROC       EQUANCOLLECT
  -------         PROC          _ADCONVERT
  D:0007H         SYMBOL        channel
  -------         DO            
  D:0003H         SYMBOL        i
  D:0007H         SYMBOL        j
  D:003FH         SYMBOL        value
  X:89C5H         SYMBOL        ad
  -------         ENDDO         
  C:79E0H         LINE#         1827
  C:79E0H         LINE#         1828
  C:79E0H         LINE#         1834
  C:79E5H         LINE#         1835
  C:79ECH         LINE#         1836
  C:79F8H         LINE#         1837
  C:79F8H         LINE#         1838
  C:7A01H         LINE#         1839
  C:7A08H         LINE#         1840
  C:7A2FH         LINE#         1841
  C:7A32H         LINE#         1842
  C:7A41H         LINE#         1843
  C:7A41H         LINE#         1844
  C:7A4DH         LINE#         1845
  C:7A4DH         LINE#         1846
  C:7A7AH         LINE#         1847
  C:7A7AH         LINE#         1848
  C:7A8FH         LINE#         1849
  C:7AB1H         LINE#         1850
  C:7AC4H         LINE#         1851
  C:7AC4H         LINE#         1852
  C:7AC8H         LINE#         1853
  C:7ACCH         LINE#         1854
  C:7AD1H         LINE#         1855
  C:7ADDH         LINE#         1856
  C:7ADDH         LINE#         1857
  C:7AF6H         LINE#         1858
  C:7AF9H         LINE#         1859
  C:7B04H         LINE#         1860
  C:7B14H         LINE#         1861
BL51 BANKED LINKER/LOCATER V6.22.2.0                                                  03/24/2020  19:38:01  PAGE 30


  C:7B17H         LINE#         1862
  -------         ENDPROC       _ADCONVERT
  -------         PROC          STATEWORDBUILD
  C:4BC4H         LINE#         1868
  C:4BC4H         LINE#         1869
  C:4BC4H         LINE#         1870
  C:4BC9H         LINE#         1871
  C:4BE1H         LINE#         1872
  C:4BE1H         LINE#         1873
  C:4BE8H         LINE#         1874
  C:4BE8H         LINE#         1875
  C:4C00H         LINE#         1876
  C:4C00H         LINE#         1877
  C:4C07H         LINE#         1878
  C:4C07H         LINE#         1879
  C:4C1FH         LINE#         1880
  C:4C1FH         LINE#         1881
  C:4C26H         LINE#         1882
  C:4C26H         LINE#         1883
  C:4C3EH         LINE#         1884
  C:4C3EH         LINE#         1885
  C:4C45H         LINE#         1886
  C:4C45H         LINE#         1887
  C:4C5DH         LINE#         1888
  C:4C5DH         LINE#         1889
  C:4C64H         LINE#         1890
  C:4C64H         LINE#         1891
  C:4C7CH         LINE#         1892
  C:4C7CH         LINE#         1893
  C:4C83H         LINE#         1894
  C:4C83H         LINE#         1895
  C:4C9BH         LINE#         1896
  C:4C9BH         LINE#         1897
  C:4CA2H         LINE#         1898
  C:4CA2H         LINE#         1899
  C:4CBAH         LINE#         1900
  C:4CBAH         LINE#         1901
  C:4CC1H         LINE#         1902
  C:4CC1H         LINE#         1904
  C:4CC6H         LINE#         1905
  C:4CDEH         LINE#         1906
  C:4CDEH         LINE#         1907
  C:4CE5H         LINE#         1908
  C:4CE5H         LINE#         1909
  C:4CFDH         LINE#         1910
  C:4CFDH         LINE#         1911
  C:4D04H         LINE#         1912
  C:4D04H         LINE#         1913
  C:4D1CH         LINE#         1914
  C:4D1CH         LINE#         1915
  C:4D23H         LINE#         1916
  C:4D23H         LINE#         1917
  C:4D3BH         LINE#         1918
  C:4D3BH         LINE#         1919
  C:4D42H         LINE#         1920
  C:4D42H         LINE#         1921
  C:4D5AH         LINE#         1922
BL51 BANKED LINKER/LOCATER V6.22.2.0                                                  03/24/2020  19:38:01  PAGE 31


  C:4D5AH         LINE#         1923
  C:4D61H         LINE#         1924
  C:4D61H         LINE#         1925
  C:4D79H         LINE#         1926
  C:4D79H         LINE#         1927
  C:4D80H         LINE#         1928
  C:4D80H         LINE#         1929
  C:4D98H         LINE#         1930
  C:4D98H         LINE#         1931
  C:4D9FH         LINE#         1932
  C:4D9FH         LINE#         1933
  C:4DB7H         LINE#         1934
  C:4DB7H         LINE#         1935
  C:4DBEH         LINE#         1936
  C:4DBEH         LINE#         1938
  C:4DC3H         LINE#         1939
  C:4DDBH         LINE#         1940
  C:4DDBH         LINE#         1941
  C:4DE2H         LINE#         1942
  C:4DE2H         LINE#         1943
  C:4DFAH         LINE#         1944
  C:4DFAH         LINE#         1945
  C:4E01H         LINE#         1946
  C:4E01H         LINE#         1947
  C:4E19H         LINE#         1948
  C:4E19H         LINE#         1949
  C:4E20H         LINE#         1950
  C:4E20H         LINE#         1951
  C:4E38H         LINE#         1952
  C:4E38H         LINE#         1953
  C:4E3FH         LINE#         1954
  C:4E3FH         LINE#         1955
  C:4E57H         LINE#         1956
  C:4E57H         LINE#         1957
  C:4E5EH         LINE#         1958
  C:4E5EH         LINE#         1959
  C:4E76H         LINE#         1960
  C:4E76H         LINE#         1961
  C:4E7DH         LINE#         1962
  C:4E7DH         LINE#         1963
  C:4E95H         LINE#         1964
  C:4E95H         LINE#         1965
  C:4E9CH         LINE#         1966
  C:4E9CH         LINE#         1967
  C:4EB4H         LINE#         1968
  C:4EB4H         LINE#         1969
  C:4EBBH         LINE#         1970
  C:4EBBH         LINE#         1972
  C:4EC0H         LINE#         1973
  C:4EC8H         LINE#         1974
  C:4EC8H         LINE#         1975
  C:4ECFH         LINE#         1976
  C:4ECFH         LINE#         1977
  C:4ED7H         LINE#         1978
  C:4ED7H         LINE#         1979
  C:4EDEH         LINE#         1980
  C:4EDEH         LINE#         1981
BL51 BANKED LINKER/LOCATER V6.22.2.0                                                  03/24/2020  19:38:01  PAGE 32


  C:4EE6H         LINE#         1982
  C:4EE6H         LINE#         1983
  C:4EEDH         LINE#         1984
  C:4EEDH         LINE#         1985
  C:4EF5H         LINE#         1986
  C:4EF5H         LINE#         1987
  C:4EFCH         LINE#         1988
  C:4EFCH         LINE#         1989
  C:4F04H         LINE#         1990
  C:4F04H         LINE#         1991
  C:4F0BH         LINE#         1992
  C:4F0BH         LINE#         1993
  C:4F13H         LINE#         1994
  C:4F13H         LINE#         1995
  C:4F1AH         LINE#         1996
  C:4F1AH         LINE#         1997
  C:4F22H         LINE#         1998
  C:4F22H         LINE#         1999
  C:4F29H         LINE#         2000
  C:4F29H         LINE#         2002
  C:4F2EH         LINE#         2003
  C:4F38H         LINE#         2004
  C:4F38H         LINE#         2005
  C:4F3FH         LINE#         2006
  C:4F3FH         LINE#         2007
  C:4F4AH         LINE#         2008
  C:4F4AH         LINE#         2009
  C:4F51H         LINE#         2010
  C:4F51H         LINE#         2011
  C:4F58H         LINE#         2012
  C:4F58H         LINE#         2013
  C:4F5FH         LINE#         2014
  C:4F5FH         LINE#         2015
  C:4F69H         LINE#         2016
  C:4F69H         LINE#         2017
  C:4F70H         LINE#         2018
  C:4F70H         LINE#         2019
  C:4F7BH         LINE#         2020
  C:4F7BH         LINE#         2021
  C:4F82H         LINE#         2022
  C:4F82H         LINE#         2023
  C:4F89H         LINE#         2024
  C:4F89H         LINE#         2025
  C:4F90H         LINE#         2026
  C:4F90H         LINE#         2027
  C:4F9AH         LINE#         2028
  C:4F9AH         LINE#         2029
  C:4FA1H         LINE#         2030
  C:4FA1H         LINE#         2031
  C:4FACH         LINE#         2032
  C:4FACH         LINE#         2033
  C:4FB3H         LINE#         2034
  C:4FB3H         LINE#         2036
  C:4FB8H         LINE#         2037
  C:4FBFH         LINE#         2038
  C:4FBFH         LINE#         2039
  C:4FC3H         LINE#         2040
BL51 BANKED LINKER/LOCATER V6.22.2.0                                                  03/24/2020  19:38:01  PAGE 33


  C:4FC3H         LINE#         2041
  -------         ENDPROC       STATEWORDBUILD
  -------         PROC          SAVEDATARS1
  -------         DO            
  D:003EH         SYMBOL        p1
  D:0041H         SYMBOL        sum
  -------         ENDDO         
  C:1D0FH         LINE#         2047
  C:1D0FH         LINE#         2048
  C:1D0FH         LINE#         2053
  C:1D17H         LINE#         2054
  C:1D17H         LINE#         2055
  C:1D20H         LINE#         2056
  C:1D22H         LINE#         2058
  C:1D22H         LINE#         2059
  C:1D2BH         LINE#         2060
  C:1D2BH         LINE#         2062
  C:1D2EH         LINE#         2065
  C:1D39H         LINE#         2066
  C:1D44H         LINE#         2067
  C:1D4EH         LINE#         2068
  C:1D59H         LINE#         2069
  C:1D62H         LINE#         2070
  C:1D6CH         LINE#         2071
  C:1D76H         LINE#         2072
  C:1D81H         LINE#         2073
  C:1D8BH         LINE#         2074
  C:1D98H         LINE#         2075
  C:1DA3H         LINE#         2076
  C:1DAEH         LINE#         2077
  C:1DBBH         LINE#         2078
  C:1DC6H         LINE#         2079
  C:1DD2H         LINE#         2080
  C:1DDFH         LINE#         2081
  C:1DEAH         LINE#         2082
  C:1DF5H         LINE#         2083
  C:1E02H         LINE#         2084
  C:1E0DH         LINE#         2085
  C:1E19H         LINE#         2086
  C:1E26H         LINE#         2087
  C:1E31H         LINE#         2088
  C:1E3CH         LINE#         2089
  C:1E49H         LINE#         2090
  C:1E54H         LINE#         2092
  C:1E5CH         LINE#         2093
  C:1E67H         LINE#         2094
  C:1E71H         LINE#         2095
  C:1E7CH         LINE#         2096
  C:1E86H         LINE#         2097
  C:1E8FH         LINE#         2098
  C:1E9DH         LINE#         2099
  C:1EAAH         LINE#         2100
  C:1EB5H         LINE#         2101
  C:1EC0H         LINE#         2102
  C:1ECDH         LINE#         2103
  C:1ED8H         LINE#         2104
  C:1EE4H         LINE#         2105
BL51 BANKED LINKER/LOCATER V6.22.2.0                                                  03/24/2020  19:38:01  PAGE 34


  C:1EF1H         LINE#         2106
  C:1EFCH         LINE#         2107
  C:1F07H         LINE#         2108
  C:1F14H         LINE#         2109
  C:1F1FH         LINE#         2111
  C:1F2BH         LINE#         2112
  C:1F38H         LINE#         2113
  C:1F43H         LINE#         2114
  C:1F4EH         LINE#         2115
  C:1F5BH         LINE#         2116
  C:1F66H         LINE#         2117
  C:1F72H         LINE#         2118
  C:1F7FH         LINE#         2119
  C:1F8AH         LINE#         2121
  C:1F92H         LINE#         2122
  C:1F9DH         LINE#         2123
  C:1FA7H         LINE#         2124
  C:1FB2H         LINE#         2125
  C:1FBCH         LINE#         2126
  C:1FC6H         LINE#         2127
  C:1FD3H         LINE#         2128
  C:1FE0H         LINE#         2129
  C:1FEBH         LINE#         2130
  C:1FF7H         LINE#         2131
  C:2004H         LINE#         2132
  C:200FH         LINE#         2133
  C:201AH         LINE#         2134
  C:2027H         LINE#         2135
  C:2032H         LINE#         2136
  C:203EH         LINE#         2137
  C:204BH         LINE#         2138
  C:2056H         LINE#         2139
  C:2061H         LINE#         2140
  C:206EH         LINE#         2141
  C:2079H         LINE#         2142
  C:2085H         LINE#         2143
  C:2092H         LINE#         2144
  C:209DH         LINE#         2145
  C:20A8H         LINE#         2146
  C:20B5H         LINE#         2147
  C:20C0H         LINE#         2149
  C:20C8H         LINE#         2150
  C:20D3H         LINE#         2151
  C:20DDH         LINE#         2152
  C:20E8H         LINE#         2153
  C:20F2H         LINE#         2154
  C:20FDH         LINE#         2155
  C:210BH         LINE#         2156
  C:2118H         LINE#         2157
  C:2123H         LINE#         2158
  C:212EH         LINE#         2159
  C:213BH         LINE#         2160
  C:2146H         LINE#         2161
  C:2152H         LINE#         2162
  C:215FH         LINE#         2163
  C:216AH         LINE#         2164
  C:2175H         LINE#         2165
BL51 BANKED LINKER/LOCATER V6.22.2.0                                                  03/24/2020  19:38:01  PAGE 35


  C:2182H         LINE#         2166
  C:218DH         LINE#         2167
  C:2199H         LINE#         2168
  C:21A6H         LINE#         2169
  C:21B1H         LINE#         2170
  C:21BCH         LINE#         2171
  C:21C9H         LINE#         2172
  C:21D4H         LINE#         2173
  C:21E0H         LINE#         2174
  C:21EDH         LINE#         2175
  C:21F8H         LINE#         2177
  C:2200H         LINE#         2178
  C:220BH         LINE#         2179
  C:2215H         LINE#         2180
  C:2220H         LINE#         2181
  C:222AH         LINE#         2182
  C:2235H         LINE#         2183
  C:225BH         LINE#         2184
  C:2268H         LINE#         2185
  C:2273H         LINE#         2186
  C:2299H         LINE#         2187
  C:22A6H         LINE#         2188
  C:22B1H         LINE#         2189
  C:22D7H         LINE#         2190
  C:22E4H         LINE#         2191
  C:22EFH         LINE#         2192
  C:2315H         LINE#         2193
  C:2322H         LINE#         2194
  C:232DH         LINE#         2195
  C:2338H         LINE#         2196
  C:2345H         LINE#         2197
  C:2350H         LINE#         2198
  C:235CH         LINE#         2199
  C:2369H         LINE#         2200
  C:2374H         LINE#         2201
  C:237FH         LINE#         2202
  C:238CH         LINE#         2203
  C:2397H         LINE#         2205
  C:239FH         LINE#         2206
  C:23AAH         LINE#         2207
  C:23B4H         LINE#         2208
  C:23BFH         LINE#         2209
  C:23C9H         LINE#         2210
  C:23D4H         LINE#         2211
  C:23E2H         LINE#         2212
  C:23EFH         LINE#         2213
  C:23FAH         LINE#         2214
  C:2405H         LINE#         2215
  C:2412H         LINE#         2216
  C:241DH         LINE#         2217
  C:2429H         LINE#         2218
  C:2436H         LINE#         2219
  C:2441H         LINE#         2220
  C:2467H         LINE#         2221
  C:2474H         LINE#         2222
  C:247FH         LINE#         2223
  C:24A5H         LINE#         2224
BL51 BANKED LINKER/LOCATER V6.22.2.0                                                  03/24/2020  19:38:01  PAGE 36


  C:24B2H         LINE#         2225
  C:24BDH         LINE#         2226
  C:24E3H         LINE#         2227
  C:24F0H         LINE#         2228
  C:24FBH         LINE#         2229
  C:2521H         LINE#         2230
  C:252EH         LINE#         2231
  C:2539H         LINE#         2233
  C:2541H         LINE#         2234
  C:254CH         LINE#         2235
  C:2556H         LINE#         2236
  C:2561H         LINE#         2237
  C:256BH         LINE#         2238
  C:2576H         LINE#         2239
  C:259CH         LINE#         2240
  C:25A9H         LINE#         2241
  C:25B4H         LINE#         2242
  C:25DAH         LINE#         2243
  C:25E7H         LINE#         2244
  C:25F2H         LINE#         2245
  C:2618H         LINE#         2246
  C:2625H         LINE#         2247
  C:2630H         LINE#         2248
  C:2656H         LINE#         2249
  C:2663H         LINE#         2250
  C:266EH         LINE#         2251
  C:2676H         LINE#         2253
  C:267EH         LINE#         2254
  C:267EH         LINE#         2255
  C:2681H         LINE#         2256
  C:2682H         LINE#         2258
  C:2682H         LINE#         2259
  C:2688H         LINE#         2260
  C:2688H         LINE#         2261
  -------         ENDPROC       SAVEDATARS1
  -------         PROC          SAVEDATARS2
  -------         DO            
  D:003EH         SYMBOL        p1
  D:0005H         SYMBOL        sum
  -------         ENDDO         
  C:0033H         LINE#         2267
  C:0033H         LINE#         2268
  C:0033H         LINE#         2273
  C:003BH         LINE#         2274
  C:003BH         LINE#         2275
  C:0044H         LINE#         2276
  C:0046H         LINE#         2278
  C:0046H         LINE#         2279
  C:004FH         LINE#         2280
  C:004FH         LINE#         2282
  C:0051H         LINE#         2285
  C:005CH         LINE#         2286
  C:0067H         LINE#         2287
  C:0071H         LINE#         2288
  C:007CH         LINE#         2289
  C:0085H         LINE#         2290
  C:008FH         LINE#         2291
BL51 BANKED LINKER/LOCATER V6.22.2.0                                                  03/24/2020  19:38:01  PAGE 37


  C:0099H         LINE#         2292
  C:00A4H         LINE#         2293
  C:00AEH         LINE#         2294
  C:00B9H         LINE#         2295
  C:00C4H         LINE#         2296
  C:00CFH         LINE#         2297
  C:00DAH         LINE#         2298
  C:00E5H         LINE#         2299
  C:00F1H         LINE#         2300
  C:00FCH         LINE#         2301
  C:0107H         LINE#         2302
  C:0112H         LINE#         2303
  C:011DH         LINE#         2304
  C:0128H         LINE#         2305
  C:0134H         LINE#         2306
  C:013FH         LINE#         2307
  C:014AH         LINE#         2308
  C:0155H         LINE#         2309
  C:0160H         LINE#         2310
  C:016BH         LINE#         2312
  C:0173H         LINE#         2313
  C:017EH         LINE#         2314
  C:0188H         LINE#         2315
  C:0193H         LINE#         2316
  C:019DH         LINE#         2317
  C:01A6H         LINE#         2319
  C:01B4H         LINE#         2320
  C:01BFH         LINE#         2321
  C:01CAH         LINE#         2322
  C:01D5H         LINE#         2323
  C:01E0H         LINE#         2324
  C:01EBH         LINE#         2325
  C:01F7H         LINE#         2326
  C:0202H         LINE#         2327
  C:020DH         LINE#         2328
  C:0218H         LINE#         2329
  C:0223H         LINE#         2330
  C:022EH         LINE#         2331
  C:023AH         LINE#         2332
  C:0245H         LINE#         2333
  C:0250H         LINE#         2334
  C:025BH         LINE#         2335
  C:0266H         LINE#         2336
  C:0271H         LINE#         2337
  C:027DH         LINE#         2338
  C:0288H         LINE#         2339
  C:0293H         LINE#         2342
  C:029BH         LINE#         2343
  C:02A6H         LINE#         2344
  C:02B0H         LINE#         2345
  C:02BBH         LINE#         2346
  C:02C5H         LINE#         2347
  C:02CFH         LINE#         2349
  C:02DCH         LINE#         2350
  C:02E7H         LINE#         2351
  C:02F2H         LINE#         2352
  C:02FEH         LINE#         2353
BL51 BANKED LINKER/LOCATER V6.22.2.0                                                  03/24/2020  19:38:01  PAGE 38


  C:0309H         LINE#         2354
  C:0314H         LINE#         2355
  C:031FH         LINE#         2356
  C:032AH         LINE#         2357
  C:0335H         LINE#         2358
  C:0341H         LINE#         2359
  C:034CH         LINE#         2360
  C:0357H         LINE#         2361
  C:0362H         LINE#         2362
  C:036DH         LINE#         2363
  C:0378H         LINE#         2364
  C:0384H         LINE#         2365
  C:038FH         LINE#         2366
  C:039AH         LINE#         2367
  C:03A5H         LINE#         2368
  C:03B0H         LINE#         2369
  C:03BBH         LINE#         2372
  C:03C3H         LINE#         2373
  C:03CEH         LINE#         2374
  C:03D8H         LINE#         2375
  C:03E3H         LINE#         2376
  C:03EDH         LINE#         2377
  C:03F8H         LINE#         2379
  C:0406H         LINE#         2380
  C:0411H         LINE#         2381
  C:041CH         LINE#         2382
  C:0427H         LINE#         2383
  C:0432H         LINE#         2384
  C:043DH         LINE#         2385
  C:0449H         LINE#         2386
  C:0454H         LINE#         2387
  C:045FH         LINE#         2388
  C:046AH         LINE#         2389
  C:0475H         LINE#         2390
  C:0480H         LINE#         2391
  C:048CH         LINE#         2392
  C:0497H         LINE#         2393
  C:04A2H         LINE#         2394
  C:04ADH         LINE#         2395
  C:04B8H         LINE#         2396
  C:04C3H         LINE#         2397
  C:04CFH         LINE#         2398
  C:04DAH         LINE#         2399
  C:04E5H         LINE#         2402
  C:04EDH         LINE#         2403
  C:04F8H         LINE#         2404
  C:0502H         LINE#         2405
  C:050DH         LINE#         2406
  C:0517H         LINE#         2407
  C:0522H         LINE#         2409
  C:052FH         LINE#         2410
  C:053AH         LINE#         2411
  C:0545H         LINE#         2412
  C:0551H         LINE#         2413
  C:055CH         LINE#         2414
  C:0567H         LINE#         2415
  C:0572H         LINE#         2416
BL51 BANKED LINKER/LOCATER V6.22.2.0                                                  03/24/2020  19:38:01  PAGE 39


  C:057DH         LINE#         2417
  C:0588H         LINE#         2418
  C:0594H         LINE#         2419
  C:059FH         LINE#         2420
  C:05AAH         LINE#         2421
  C:05B5H         LINE#         2422
  C:05C0H         LINE#         2423
  C:05CBH         LINE#         2424
  C:05D7H         LINE#         2425
  C:05E2H         LINE#         2426
  C:05EDH         LINE#         2427
  C:05F8H         LINE#         2428
  C:0603H         LINE#         2429
  C:060EH         LINE#         2432
  C:0616H         LINE#         2433
  C:0621H         LINE#         2434
  C:062BH         LINE#         2435
  C:0636H         LINE#         2436
  C:0640H         LINE#         2437
  C:064BH         LINE#         2439
  C:0659H         LINE#         2440
  C:0664H         LINE#         2441
  C:066FH         LINE#         2442
  C:067AH         LINE#         2443
  C:0685H         LINE#         2444
  C:0690H         LINE#         2445
  C:069CH         LINE#         2446
  C:06A7H         LINE#         2447
  C:06B2H         LINE#         2448
  C:06BDH         LINE#         2449
  C:06C8H         LINE#         2450
  C:06D3H         LINE#         2451
  C:06DFH         LINE#         2452
  C:06EAH         LINE#         2453
  C:06F5H         LINE#         2454
  C:0700H         LINE#         2455
  C:070BH         LINE#         2456
  C:0716H         LINE#         2457
  C:0722H         LINE#         2458
  C:072DH         LINE#         2459
  C:0738H         LINE#         2462
  C:0740H         LINE#         2463
  C:074BH         LINE#         2464
  C:0755H         LINE#         2465
  C:0760H         LINE#         2466
  C:076AH         LINE#         2467
  C:0775H         LINE#         2469
  C:0782H         LINE#         2470
  C:078DH         LINE#         2471
  C:0798H         LINE#         2472
  C:07A4H         LINE#         2473
  C:07AFH         LINE#         2474
  C:07BAH         LINE#         2475
  C:07C5H         LINE#         2476
  C:07D0H         LINE#         2477
  C:07DBH         LINE#         2478
  C:07E7H         LINE#         2479
BL51 BANKED LINKER/LOCATER V6.22.2.0                                                  03/24/2020  19:38:01  PAGE 40


  C:07F2H         LINE#         2480
  C:07FDH         LINE#         2481
  C:0808H         LINE#         2482
  C:0813H         LINE#         2483
  C:081EH         LINE#         2484
  C:082AH         LINE#         2485
  C:0835H         LINE#         2486
  C:0840H         LINE#         2487
  C:084BH         LINE#         2488
  C:0856H         LINE#         2489
  C:0861H         LINE#         2492
  C:0869H         LINE#         2493
  C:0874H         LINE#         2494
  C:087EH         LINE#         2495
  C:0889H         LINE#         2496
  C:0893H         LINE#         2497
  C:089EH         LINE#         2499
  C:08ACH         LINE#         2500
  C:08B7H         LINE#         2501
  C:08C2H         LINE#         2502
  C:08CDH         LINE#         2503
  C:08D8H         LINE#         2504
  C:08E3H         LINE#         2505
  C:08EFH         LINE#         2506
  C:08FAH         LINE#         2507
  C:0905H         LINE#         2508
  C:0910H         LINE#         2509
  C:091BH         LINE#         2510
  C:0926H         LINE#         2511
  C:0932H         LINE#         2512
  C:093DH         LINE#         2513
  C:0948H         LINE#         2514
  C:0953H         LINE#         2515
  C:095EH         LINE#         2516
  C:0969H         LINE#         2517
  C:0975H         LINE#         2518
  C:0980H         LINE#         2519
  C:098BH         LINE#         2522
  C:0993H         LINE#         2523
  C:099EH         LINE#         2524
  C:09A8H         LINE#         2525
  C:09B3H         LINE#         2526
  C:09BDH         LINE#         2527
  C:09C8H         LINE#         2529
  C:09D5H         LINE#         2530
  C:09E0H         LINE#         2531
  C:09EBH         LINE#         2532
  C:09F7H         LINE#         2533
  C:0A02H         LINE#         2534
  C:0A0DH         LINE#         2535
  C:0A18H         LINE#         2536
  C:0A23H         LINE#         2537
  C:0A2EH         LINE#         2538
  C:0A3AH         LINE#         2539
  C:0A45H         LINE#         2540
  C:0A50H         LINE#         2541
  C:0A5BH         LINE#         2542
BL51 BANKED LINKER/LOCATER V6.22.2.0                                                  03/24/2020  19:38:01  PAGE 41


  C:0A66H         LINE#         2543
  C:0A71H         LINE#         2544
  C:0A7DH         LINE#         2545
  C:0A88H         LINE#         2546
  C:0A93H         LINE#         2547
  C:0A9EH         LINE#         2548
  C:0AA9H         LINE#         2549
  C:0AB4H         LINE#         2552
  C:0ABCH         LINE#         2553
  C:0AC7H         LINE#         2554
  C:0AD1H         LINE#         2555
  C:0ADCH         LINE#         2556
  C:0AE6H         LINE#         2557
  C:0AF1H         LINE#         2559
  C:0AFFH         LINE#         2560
  C:0B0AH         LINE#         2561
  C:0B15H         LINE#         2562
  C:0B20H         LINE#         2563
  C:0B2BH         LINE#         2564
  C:0B36H         LINE#         2565
  C:0B42H         LINE#         2566
  C:0B4DH         LINE#         2567
  C:0B58H         LINE#         2568
  C:0B63H         LINE#         2569
  C:0B6EH         LINE#         2570
  C:0B79H         LINE#         2571
  C:0B85H         LINE#         2572
  C:0B90H         LINE#         2573
  C:0B9BH         LINE#         2574
  C:0BA6H         LINE#         2575
  C:0BB1H         LINE#         2576
  C:0BBCH         LINE#         2577
  C:0BC8H         LINE#         2578
  C:0BD3H         LINE#         2579
  C:0BDEH         LINE#         2582
  C:0BE6H         LINE#         2583
  C:0BF1H         LINE#         2584
  C:0BFBH         LINE#         2585
  C:0C06H         LINE#         2586
  C:0C10H         LINE#         2587
  C:0C1BH         LINE#         2589
  C:0C28H         LINE#         2590
  C:0C33H         LINE#         2591
  C:0C3EH         LINE#         2592
  C:0C4AH         LINE#         2593
  C:0C55H         LINE#         2594
  C:0C60H         LINE#         2595
  C:0C6BH         LINE#         2596
  C:0C76H         LINE#         2597
  C:0C81H         LINE#         2598
  C:0C8DH         LINE#         2599
  C:0C98H         LINE#         2600
  C:0CA3H         LINE#         2601
  C:0CAEH         LINE#         2602
  C:0CB9H         LINE#         2603
  C:0CC4H         LINE#         2604
  C:0CD0H         LINE#         2605
BL51 BANKED LINKER/LOCATER V6.22.2.0                                                  03/24/2020  19:38:01  PAGE 42


  C:0CDBH         LINE#         2606
  C:0CE6H         LINE#         2607
  C:0CF1H         LINE#         2608
  C:0CFCH         LINE#         2609
  C:0D07H         LINE#         2612
  C:0D0FH         LINE#         2613
  C:0D1AH         LINE#         2614
  C:0D24H         LINE#         2615
  C:0D2FH         LINE#         2616
  C:0D39H         LINE#         2617
  C:0D44H         LINE#         2619
  C:0D52H         LINE#         2620
  C:0D5DH         LINE#         2621
  C:0D68H         LINE#         2622
  C:0D73H         LINE#         2623
  C:0D7EH         LINE#         2624
  C:0D89H         LINE#         2625
  C:0D95H         LINE#         2626
  C:0DA0H         LINE#         2627
  C:0DABH         LINE#         2628
  C:0DB6H         LINE#         2629
  C:0DC1H         LINE#         2630
  C:0DCCH         LINE#         2631
  C:0DD8H         LINE#         2632
  C:0DE3H         LINE#         2633
  C:0DEEH         LINE#         2634
  C:0DF9H         LINE#         2635
  C:0E04H         LINE#         2636
  C:0E0FH         LINE#         2637
  C:0E1BH         LINE#         2638
  C:0E26H         LINE#         2639
  C:0E31H         LINE#         2642
  C:0E39H         LINE#         2643
  C:0E44H         LINE#         2644
  C:0E4EH         LINE#         2645
  C:0E59H         LINE#         2646
  C:0E63H         LINE#         2647
  C:0E6EH         LINE#         2649
  C:0E7BH         LINE#         2650
  C:0E86H         LINE#         2651
  C:0E91H         LINE#         2652
  C:0E9DH         LINE#         2653
  C:0EA8H         LINE#         2654
  C:0EB3H         LINE#         2656
  C:0EBEH         LINE#         2657
  C:0EC9H         LINE#         2658
  C:0ED4H         LINE#         2659
  C:0EDFH         LINE#         2660
  C:0EEAH         LINE#         2661
  C:0EF5H         LINE#         2662
  C:0F00H         LINE#         2663
  C:0F0BH         LINE#         2664
  C:0F16H         LINE#         2665
  C:0F21H         LINE#         2666
  C:0F2CH         LINE#         2667
  C:0F37H         LINE#         2668
  C:0F42H         LINE#         2669
BL51 BANKED LINKER/LOCATER V6.22.2.0                                                  03/24/2020  19:38:01  PAGE 43


  C:0F4DH         LINE#         2670
  C:0F58H         LINE#         2673
  C:0F60H         LINE#         2674
  C:0F6BH         LINE#         2675
  C:0F75H         LINE#         2676
  C:0F80H         LINE#         2677
  C:0F8AH         LINE#         2678
  C:0F95H         LINE#         2680
  C:0FA2H         LINE#         2681
  C:0FADH         LINE#         2682
  C:0FB8H         LINE#         2683
  C:0FC3H         LINE#         2684
  C:0FCEH         LINE#         2685
  C:0FD9H         LINE#         2686
  C:0FE5H         LINE#         2687
  C:0FF0H         LINE#         2688
  C:0FFBH         LINE#         2689
  C:1006H         LINE#         2690
  C:1011H         LINE#         2691
  C:101CH         LINE#         2692
  C:1028H         LINE#         2693
  C:1033H         LINE#         2694
  C:103EH         LINE#         2695
  C:1049H         LINE#         2696
  C:1054H         LINE#         2697
  C:105FH         LINE#         2698
  C:106BH         LINE#         2699
  C:1076H         LINE#         2700
  C:1081H         LINE#         2703
  C:1089H         LINE#         2704
  C:1094H         LINE#         2705
  C:109EH         LINE#         2706
  C:10A9H         LINE#         2707
  C:10B3H         LINE#         2708
  C:10BEH         LINE#         2710
  C:10CBH         LINE#         2711
  C:10D6H         LINE#         2712
  C:10E1H         LINE#         2713
  C:10EDH         LINE#         2714
  C:10F8H         LINE#         2715
  C:1103H         LINE#         2716
  C:110EH         LINE#         2717
  C:1119H         LINE#         2718
  C:1124H         LINE#         2719
  C:1130H         LINE#         2720
  C:113BH         LINE#         2721
  C:1146H         LINE#         2722
  C:1151H         LINE#         2723
  C:115CH         LINE#         2724
  C:1167H         LINE#         2725
  C:1173H         LINE#         2726
  C:117EH         LINE#         2727
  C:1189H         LINE#         2728
  C:1194H         LINE#         2729
  C:119FH         LINE#         2730
  C:11AAH         LINE#         2733
  C:11B2H         LINE#         2734
BL51 BANKED LINKER/LOCATER V6.22.2.0                                                  03/24/2020  19:38:01  PAGE 44


  C:11BDH         LINE#         2735
  C:11C7H         LINE#         2736
  C:11D2H         LINE#         2737
  C:11DCH         LINE#         2738
  C:11E7H         LINE#         2740
  C:11F5H         LINE#         2741
  C:1200H         LINE#         2742
  C:120BH         LINE#         2743
  C:1216H         LINE#         2744
  C:1221H         LINE#         2745
  C:122CH         LINE#         2746
  C:1238H         LINE#         2747
  C:1243H         LINE#         2748
  C:124EH         LINE#         2749
  C:1259H         LINE#         2750
  C:1264H         LINE#         2751
  C:126FH         LINE#         2752
  C:127BH         LINE#         2753
  C:1286H         LINE#         2754
  C:1291H         LINE#         2755
  C:129CH         LINE#         2756
  C:12A7H         LINE#         2757
  C:12B2H         LINE#         2758
  C:12BDH         LINE#         2759
  C:12C8H         LINE#         2760
  C:12D3H         LINE#         2762
  C:12DBH         LINE#         2763
  C:12E6H         LINE#         2764
  C:12F0H         LINE#         2765
  C:12FBH         LINE#         2766
  C:1305H         LINE#         2767
  C:1310H         LINE#         2769
  C:1319H         LINE#         2771
  C:1321H         LINE#         2772
  C:1321H         LINE#         2773
  C:1324H         LINE#         2774
  C:1325H         LINE#         2776
  C:1325H         LINE#         2777
  C:132BH         LINE#         2778
  C:132BH         LINE#         2779
  -------         ENDPROC       SAVEDATARS2
  -------         PROC          SAVEDATARS3
  -------         DO            
  D:0007H         SYMBOL        i
  D:0006H         SYMBOL        j
  D:003EH         SYMBOL        p1
  D:0041H         SYMBOL        p2
  D:0044H         SYMBOL        sum
  -------         ENDDO         
  C:7056H         LINE#         2785
  C:7056H         LINE#         2786
  C:7056H         LINE#         2795
  C:705FH         LINE#         2796
  C:7068H         LINE#         2798
  C:706BH         LINE#         2801
  C:7076H         LINE#         2802
  C:7081H         LINE#         2803
BL51 BANKED LINKER/LOCATER V6.22.2.0                                                  03/24/2020  19:38:01  PAGE 45


  C:708BH         LINE#         2804
  C:7096H         LINE#         2805
  C:709FH         LINE#         2806
  C:70A9H         LINE#         2807
  C:70B3H         LINE#         2808
  C:70BEH         LINE#         2809
  C:70C8H         LINE#         2810
  C:70D5H         LINE#         2811
  C:70E0H         LINE#         2813
  C:70ECH         LINE#         2814
  C:70ECH         LINE#         2815
  C:70FEH         LINE#         2816
  C:710BH         LINE#         2817
  C:7116H         LINE#         2818
  C:7121H         LINE#         2819
  C:7124H         LINE#         2822
  C:7133H         LINE#         2823
  C:7133H         LINE#         2824
  C:713EH         LINE#         2825
  C:7149H         LINE#         2826
  C:7153H         LINE#         2827
  C:715EH         LINE#         2828
  C:7169H         LINE#         2829
  C:7174H         LINE#         2831
  C:7180H         LINE#         2832
  C:7180H         LINE#         2833
  C:7192H         LINE#         2834
  C:719FH         LINE#         2835
  C:71AAH         LINE#         2836
  C:71B5H         LINE#         2837
  C:71B8H         LINE#         2838
  C:71BCH         LINE#         2841
  C:71C7H         LINE#         2842
  C:71D2H         LINE#         2843
  C:71DCH         LINE#         2844
  C:71E7H         LINE#         2845
  C:71F1H         LINE#         2846
  C:71FCH         LINE#         2848
  C:720EH         LINE#         2849
  C:721BH         LINE#         2850
  C:7226H         LINE#         2851
  C:7231H         LINE#         2853
  -------         ENDPROC       SAVEDATARS3
  -------         PROC          SAVERAMDATARS
  -------         DO            
  D:0007H         SYMBOL        i
  D:0006H         SYMBOL        j
  D:0001H         SYMBOL        p1
  D:003EH         SYMBOL        sum
  D:003FH         SYMBOL        ramAddress
  -------         ENDDO         
  C:7410H         LINE#         2860
  C:7410H         LINE#         2861
  C:7410H         LINE#         2869
  C:741BH         LINE#         2870
  C:741BH         LINE#         2871
  C:741EH         LINE#         2873
BL51 BANKED LINKER/LOCATER V6.22.2.0                                                  03/24/2020  19:38:01  PAGE 46


  C:742CH         LINE#         2876
  C:7432H         LINE#         2878
  C:7435H         LINE#         2882
  C:743AH         LINE#         2883
  C:7441H         LINE#         2884
  C:7446H         LINE#         2885
  C:744DH         LINE#         2886
  C:7451H         LINE#         2887
  C:7457H         LINE#         2888
  C:745CH         LINE#         2889
  C:7463H         LINE#         2890
  C:7468H         LINE#         2891
  C:746FH         LINE#         2892
  C:7476H         LINE#         2894
  C:7482H         LINE#         2895
  C:7482H         LINE#         2896
  C:748AH         LINE#         2897
  C:7491H         LINE#         2898
  C:7498H         LINE#         2899
  C:749BH         LINE#         2902
  C:74A0H         LINE#         2903
  C:74A7H         LINE#         2904
  C:74ACH         LINE#         2905
  C:74B3H         LINE#         2906
  C:74B8H         LINE#         2907
  C:74BDH         LINE#         2909
  C:74C9H         LINE#         2910
  C:74C9H         LINE#         2911
  C:74D1H         LINE#         2912
  C:74D8H         LINE#         2913
  C:74DFH         LINE#         2914
  C:74E2H         LINE#         2916
  C:74EEH         LINE#         2917
  C:74EEH         LINE#         2918
  C:74F8H         LINE#         2919
  C:74FFH         LINE#         2920
  C:7506H         LINE#         2921
  C:750EH         LINE#         2922
  C:7511H         LINE#         2925
  C:751DH         LINE#         2926
  C:751DH         LINE#         2927
  C:7522H         LINE#         2928
  C:7529H         LINE#         2929
  C:752EH         LINE#         2930
  C:7535H         LINE#         2931
  C:753BH         LINE#         2932
  C:7542H         LINE#         2934
  C:754EH         LINE#         2935
  C:754EH         LINE#         2936
  C:7558H         LINE#         2937
  C:755FH         LINE#         2938
  C:7566H         LINE#         2939
  C:756EH         LINE#         2940
  C:7571H         LINE#         2941
  C:7574H         LINE#         2944
  C:7579H         LINE#         2945
  C:7580H         LINE#         2946
BL51 BANKED LINKER/LOCATER V6.22.2.0                                                  03/24/2020  19:38:01  PAGE 47


  C:7585H         LINE#         2947
  C:758CH         LINE#         2948
  C:7591H         LINE#         2949
  C:7598H         LINE#         2951
  C:75A4H         LINE#         2952
  C:75A4H         LINE#         2953
  C:75AEH         LINE#         2954
  C:75B5H         LINE#         2955
  C:75BCH         LINE#         2956
  C:75C4H         LINE#         2957
  C:75C7H         LINE#         2959
  C:75CCH         LINE#         2960
  C:75CCH         LINE#         2961
  -------         ENDPROC       SAVERAMDATARS
  -------         PROC          SAVEIMPORTANTDATARS
  -------         DO            
  D:0007H         SYMBOL        i
  D:0006H         SYMBOL        j
  D:003EH         SYMBOL        p1
  D:0041H         SYMBOL        p2
  D:0044H         SYMBOL        sum
  -------         ENDDO         
  C:6A81H         LINE#         2967
  C:6A81H         LINE#         2968
  C:6A81H         LINE#         2977
  C:6A8AH         LINE#         2978
  C:6A93H         LINE#         2980
  C:6A96H         LINE#         2984
  C:6AA1H         LINE#         2985
  C:6AACH         LINE#         2986
  C:6AB6H         LINE#         2987
  C:6AC1H         LINE#         2988
  C:6ACAH         LINE#         2989
  C:6AD4H         LINE#         2990
  C:6ADEH         LINE#         2991
  C:6AE9H         LINE#         2992
  C:6AF3H         LINE#         2993
  C:6B00H         LINE#         2994
  C:6B0BH         LINE#         2996
  C:6B17H         LINE#         2997
  C:6B17H         LINE#         2998
  C:6B29H         LINE#         2999
  C:6B36H         LINE#         3000
  C:6B41H         LINE#         3001
  C:6B4CH         LINE#         3002
  C:6B4FH         LINE#         3005
  C:6B5EH         LINE#         3006
  C:6B5EH         LINE#         3007
  C:6B69H         LINE#         3008
  C:6B74H         LINE#         3009
  C:6B7EH         LINE#         3010
  C:6B89H         LINE#         3011
  C:6B94H         LINE#         3012
  C:6B9FH         LINE#         3014
  C:6BABH         LINE#         3015
  C:6BABH         LINE#         3016
  C:6BBDH         LINE#         3017
BL51 BANKED LINKER/LOCATER V6.22.2.0                                                  03/24/2020  19:38:01  PAGE 48


  C:6BCAH         LINE#         3018
  C:6BD5H         LINE#         3019
  C:6BE0H         LINE#         3020
  C:6BE3H         LINE#         3021
  C:6BE7H         LINE#         3024
  C:6BF2H         LINE#         3025
  C:6BFDH         LINE#         3026
  C:6C07H         LINE#         3027
  C:6C12H         LINE#         3028
  C:6C1CH         LINE#         3029
  C:6C27H         LINE#         3031
  C:6C33H         LINE#         3032
  C:6C33H         LINE#         3033
  C:6C45H         LINE#         3034
  C:6C52H         LINE#         3035
  C:6C5DH         LINE#         3036
  C:6C68H         LINE#         3037
  C:6C6BH         LINE#         3039
  -------         ENDPROC       SAVEIMPORTANTDATARS
  -------         PROC          SELFHEALTHCHECK
  -------         DO            
  D:003EH         SYMBOL        result
  -------         ENDDO         
  C:8A7FH         LINE#         3047
  C:8A7FH         LINE#         3048
  C:8A7FH         LINE#         3051
  C:8A84H         LINE#         3053
  C:8A89H         LINE#         3054
  C:8A94H         LINE#         3055
  C:8A94H         LINE#         3056
  C:8A98H         LINE#         3057
  C:8A9AH         LINE#         3059
  C:8A9AH         LINE#         3060
  C:8A9EH         LINE#         3061
  C:8A9EH         LINE#         3063
  C:8AA1H         LINE#         3064
  C:8AACH         LINE#         3065
  C:8AACH         LINE#         3066
  C:8AB0H         LINE#         3067
  C:8AB2H         LINE#         3069
  C:8AB2H         LINE#         3070
  C:8AB6H         LINE#         3071
  C:8AB6H         LINE#         3073
  C:8AC4H         LINE#         3074
  -------         ENDPROC       SELFHEALTHCHECK
  -------         PROC          HEALTHCHECK
  C:8C11H         LINE#         3081
  C:8C11H         LINE#         3082
  C:8C11H         LINE#         3083
  C:8C14H         LINE#         3084
  C:8C17H         LINE#         3085
  C:8C1AH         LINE#         3086
  C:8C1DH         LINE#         3087
  C:8C20H         LINE#         3088
  C:8C23H         LINE#         3089
  C:8C26H         LINE#         3090
  C:8C29H         LINE#         3092
BL51 BANKED LINKER/LOCATER V6.22.2.0                                                  03/24/2020  19:38:01  PAGE 49


  C:8C2CH         LINE#         3094
  -------         ENDPROC       HEALTHCHECK
  -------         PROC          HEALTHSTATEWORDBUILD
  C:61E3H         LINE#         3102
  C:61E3H         LINE#         3103
  C:61E3H         LINE#         3104
  C:61EAH         LINE#         3105
  C:61F2H         LINE#         3106
  C:61F2H         LINE#         3107
  C:61FCH         LINE#         3108
  C:61FCH         LINE#         3109
  C:6204H         LINE#         3110
  C:6204H         LINE#         3111
  C:620EH         LINE#         3112
  C:620EH         LINE#         3113
  C:6216H         LINE#         3114
  C:6216H         LINE#         3115
  C:6220H         LINE#         3116
  C:6220H         LINE#         3117
  C:6228H         LINE#         3118
  C:6228H         LINE#         3119
  C:6232H         LINE#         3120
  C:6232H         LINE#         3121
  C:623AH         LINE#         3122
  C:623AH         LINE#         3123
  C:6244H         LINE#         3124
  C:6244H         LINE#         3125
  C:624CH         LINE#         3126
  C:624CH         LINE#         3127
  C:6256H         LINE#         3128
  C:6256H         LINE#         3129
  C:625EH         LINE#         3130
  C:625EH         LINE#         3131
  C:6268H         LINE#         3132
  C:6268H         LINE#         3133
  C:6270H         LINE#         3134
  C:6270H         LINE#         3135
  C:6278H         LINE#         3136
  C:6278H         LINE#         3137
  C:6280H         LINE#         3138
  C:6280H         LINE#         3139
  C:6287H         LINE#         3140
  C:6287H         LINE#         3142
  C:62ADH         LINE#         3143
  C:62CDH         LINE#         3145
  C:62D5H         LINE#         3146
  C:62D5H         LINE#         3147
  C:62DCH         LINE#         3148
  C:62DCH         LINE#         3149
  C:62E4H         LINE#         3150
  C:62E4H         LINE#         3151
  C:62EBH         LINE#         3152
  C:62EBH         LINE#         3154
  C:62F2H         LINE#         3155
  C:62FAH         LINE#         3156
  C:62FAH         LINE#         3157
  C:6304H         LINE#         3158
BL51 BANKED LINKER/LOCATER V6.22.2.0                                                  03/24/2020  19:38:01  PAGE 50


  C:6304H         LINE#         3159
  C:630CH         LINE#         3160
  C:630CH         LINE#         3161
  C:6316H         LINE#         3162
  C:6316H         LINE#         3163
  C:631EH         LINE#         3164
  C:631EH         LINE#         3165
  C:6328H         LINE#         3166
  C:6328H         LINE#         3167
  C:6330H         LINE#         3168
  C:6330H         LINE#         3169
  C:633AH         LINE#         3170
  C:633AH         LINE#         3171
  C:6342H         LINE#         3172
  C:6342H         LINE#         3173
  C:634CH         LINE#         3174
  C:634CH         LINE#         3175
  C:6354H         LINE#         3176
  C:6354H         LINE#         3177
  C:635EH         LINE#         3178
  C:635EH         LINE#         3179
  C:6366H         LINE#         3180
  C:6366H         LINE#         3181
  C:6370H         LINE#         3182
  C:6370H         LINE#         3183
  C:6378H         LINE#         3184
  C:6378H         LINE#         3185
  C:6382H         LINE#         3186
  C:6382H         LINE#         3187
  C:638AH         LINE#         3188
  C:638AH         LINE#         3189
  C:6391H         LINE#         3190
  C:6391H         LINE#         3191
  C:6399H         LINE#         3192
  C:6399H         LINE#         3193
  C:63A0H         LINE#         3194
  C:63A0H         LINE#         3195
  C:63A8H         LINE#         3196
  C:63A8H         LINE#         3197
  C:63AFH         LINE#         3198
  C:63AFH         LINE#         3199
  C:63B7H         LINE#         3200
  C:63B7H         LINE#         3201
  C:63BEH         LINE#         3202
  C:63BEH         LINE#         3203
  C:63C6H         LINE#         3204
  C:63C6H         LINE#         3205
  C:63CDH         LINE#         3206
  C:63CDH         LINE#         3207
  C:63D5H         LINE#         3208
  C:63D5H         LINE#         3209
  C:63DCH         LINE#         3210
  C:63DCH         LINE#         3211
  C:63E4H         LINE#         3212
  C:63E4H         LINE#         3213
  C:63EBH         LINE#         3214
  C:63EBH         LINE#         3215
BL51 BANKED LINKER/LOCATER V6.22.2.0                                                  03/24/2020  19:38:01  PAGE 51


  C:63F3H         LINE#         3216
  C:63F3H         LINE#         3217
  C:63FAH         LINE#         3218
  C:63FAH         LINE#         3220
  C:640CH         LINE#         3221
  C:641EH         LINE#         3222
  -------         ENDPROC       HEALTHSTATEWORDBUILD
  -------         PROC          GENVOLOVERCHECK
  C:8B45H         LINE#         3229
  C:8B45H         LINE#         3230
  C:8B45H         LINE#         3231
  C:8B5BH         LINE#         3232
  C:8B5BH         LINE#         3233
  C:8B61H         LINE#         3234
  C:8B6BH         LINE#         3235
  C:8B6BH         LINE#         3236
  C:8B71H         LINE#         3237
  C:8B71H         LINE#         3238
  C:8B72H         LINE#         3240
  C:8B72H         LINE#         3241
  C:8B78H         LINE#         3242
  C:8B7DH         LINE#         3243
  C:8B7DH         LINE#         3244
  -------         ENDPROC       GENVOLOVERCHECK
  -------         PROC          GENVOLUNDERCHECK
  C:8BB6H         LINE#         3251
  C:8BB6H         LINE#         3252
  C:8BB6H         LINE#         3253
  C:8BCAH         LINE#         3254
  C:8BCAH         LINE#         3255
  C:8BD0H         LINE#         3256
  C:8BD9H         LINE#         3257
  C:8BD9H         LINE#         3258
  C:8BDFH         LINE#         3259
  C:8BDFH         LINE#         3260
  C:8BE0H         LINE#         3262
  C:8BE0H         LINE#         3263
  C:8BE6H         LINE#         3264
  C:8BEBH         LINE#         3265
  C:8BEBH         LINE#         3266
  -------         ENDPROC       GENVOLUNDERCHECK
  -------         PROC          AHVOLOVERCHECK
  C:8B7EH         LINE#         3273
  C:8B7EH         LINE#         3274
  C:8B7EH         LINE#         3275
  C:8B93H         LINE#         3276
  C:8B93H         LINE#         3277
  C:8B99H         LINE#         3278
  C:8BA3H         LINE#         3279
  C:8BA3H         LINE#         3280
  C:8BA9H         LINE#         3281
  C:8BA9H         LINE#         3282
  C:8BAAH         LINE#         3284
  C:8BAAH         LINE#         3285
  C:8BB0H         LINE#         3286
  C:8BB5H         LINE#         3287
  C:8BB5H         LINE#         3288
BL51 BANKED LINKER/LOCATER V6.22.2.0                                                  03/24/2020  19:38:01  PAGE 52


  -------         ENDPROC       AHVOLOVERCHECK
  -------         PROC          AHVOLUNDERCHECK
  C:7FABH         LINE#         3295
  C:7FABH         LINE#         3296
  C:7FABH         LINE#         3297
  C:7FBEH         LINE#         3298
  C:7FBEH         LINE#         3299
  C:7FC4H         LINE#         3300
  C:7FCDH         LINE#         3301
  C:7FCDH         LINE#         3302
  C:7FD3H         LINE#         3303
  C:7FD3H         LINE#         3304
  C:7FD4H         LINE#         3306
  C:7FD4H         LINE#         3307
  C:7FDAH         LINE#         3308
  C:7FDFH         LINE#         3309
  C:7FDFH         LINE#         3310
  -------         ENDPROC       AHVOLUNDERCHECK
  -------         PROC          EQUVREFCHECK
  C:8908H         LINE#         3317
  C:8908H         LINE#         3318
  C:8908H         LINE#         3319
  C:8934H         LINE#         3320
  C:8934H         LINE#         3321
  C:893AH         LINE#         3322
  C:8944H         LINE#         3323
  C:8944H         LINE#         3324
  C:894AH         LINE#         3325
  C:894AH         LINE#         3326
  C:894BH         LINE#         3328
  C:894BH         LINE#         3329
  C:8951H         LINE#         3330
  C:8956H         LINE#         3331
  C:8956H         LINE#         3332
  -------         ENDPROC       EQUVREFCHECK
  -------         PROC          EQUWORKCHECK
  C:8957H         LINE#         3339
  C:8957H         LINE#         3340
  C:8957H         LINE#         3341
  C:8981H         LINE#         3342
  C:8981H         LINE#         3343
  C:8987H         LINE#         3344
  C:8991H         LINE#         3345
  C:8991H         LINE#         3346
  C:8997H         LINE#         3347
  C:8997H         LINE#         3348
  C:8998H         LINE#         3350
  C:8998H         LINE#         3351
  C:899EH         LINE#         3352
  C:89A3H         LINE#         3353
  C:89A3H         LINE#         3354
  -------         ENDPROC       EQUWORKCHECK
  -------         PROC          SEPCURRENTSHORTCHECK
  -------         DO            
  D:003EH         SYMBOL        i
  X:89C5H         SYMBOL        min
  X:89C9H         SYMBOL        sunWingVol
BL51 BANKED LINKER/LOCATER V6.22.2.0                                                  03/24/2020  19:38:01  PAGE 53


  -------         ENDDO         
  C:5CF5H         LINE#         3361
  C:5CF5H         LINE#         3362
  C:5CF5H         LINE#         3367
  C:5D12H         LINE#         3368
  C:5D2FH         LINE#         3369
  C:5D4CH         LINE#         3370
  C:5D69H         LINE#         3371
  C:5D86H         LINE#         3372
  C:5DA3H         LINE#         3373
  C:5DC0H         LINE#         3374
  C:5DDDH         LINE#         3375
  C:5DFAH         LINE#         3376
  C:5E17H         LINE#         3377
  C:5E34H         LINE#         3378
  C:5E51H         LINE#         3379
  C:5E6EH         LINE#         3380
  C:5E8BH         LINE#         3381
  C:5EA8H         LINE#         3382
  C:5EC5H         LINE#         3384
  C:5ED1H         LINE#         3385
  C:5EDFH         LINE#         3386
  C:5EDFH         LINE#         3387
  C:5F00H         LINE#         3388
  C:5F00H         LINE#         3389
  C:5F18H         LINE#         3390
  C:5F18H         LINE#         3391
  C:5F1CH         LINE#         3393
  C:5F5AH         LINE#         3394
  C:5F5AH         LINE#         3395
  C:5F60H         LINE#         3396
  C:5F69H         LINE#         3397
  C:5F69H         LINE#         3398
  C:5F6FH         LINE#         3399
  C:5F6FH         LINE#         3400
  C:5F70H         LINE#         3402
  C:5F70H         LINE#         3403
  C:5F76H         LINE#         3404
  C:5F7BH         LINE#         3405
  C:5F7BH         LINE#         3406
  -------         ENDPROC       SEPCURRENTSHORTCHECK
  -------         PROC          AQVOLCHECK
  -------         DO            
  D:003EH         SYMBOL        i
  -------         ENDDO         
  C:7C3AH         LINE#         3413
  C:7C3AH         LINE#         3414
  C:7C3AH         LINE#         3417
  C:7C48H         LINE#         3418
  C:7C48H         LINE#         3419
  C:7C69H         LINE#         3420
  C:7C69H         LINE#         3421
  C:7C77H         LINE#         3422
  C:7C8CH         LINE#         3423
  C:7C8CH         LINE#         3424
  C:7C9AH         LINE#         3425
  C:7C9AH         LINE#         3426
BL51 BANKED LINKER/LOCATER V6.22.2.0                                                  03/24/2020  19:38:01  PAGE 54


  C:7C9CH         LINE#         3428
  C:7C9CH         LINE#         3429
  C:7CA9H         LINE#         3430
  C:7CB7H         LINE#         3431
  C:7CB7H         LINE#         3432
  C:7CBBH         LINE#         3434
  C:7CC9H         LINE#         3435
  C:7CC9H         LINE#         3436
  C:7CE8H         LINE#         3437
  C:7CE8H         LINE#         3438
  C:7CF6H         LINE#         3439
  C:7D0BH         LINE#         3440
  C:7D0BH         LINE#         3441
  C:7D19H         LINE#         3442
  C:7D19H         LINE#         3443
  C:7D1BH         LINE#         3445
  C:7D1BH         LINE#         3446
  C:7D28H         LINE#         3447
  C:7D36H         LINE#         3448
  C:7D36H         LINE#         3449
  C:7D3AH         LINE#         3450
  -------         ENDPROC       AQVOLCHECK
  -------         PROC          SAVEDATA
  C:8CCBH         LINE#         3456
  C:8CCBH         LINE#         3457
  C:8CCBH         LINE#         3458
  C:8CCEH         LINE#         3459
  C:8CD1H         LINE#         3460
  -------         ENDPROC       SAVEDATA
  -------         PROC          CANRESUME
  -------         DO            
  D:003EH         SYMBOL        aSR
  D:003FH         SYMBOL        bSR
  D:0040H         SYMBOL        aCR
  D:0041H         SYMBOL        bCR
  -------         ENDDO         
  C:7EE9H         LINE#         3467
  C:7EE9H         LINE#         3468
  C:7EE9H         LINE#         3474
  C:7EEFH         LINE#         3475
  C:7EF5H         LINE#         3477
  C:7EFBH         LINE#         3478
  C:7F01H         LINE#         3480
  C:7F03H         LINE#         3482
  C:7F09H         LINE#         3483
  C:7F09H         LINE#         3484
  C:7F09H         LINE#         3485
  C:7F0CH         LINE#         3486
  C:7F0FH         LINE#         3487
  C:7F11H         LINE#         3488
  C:7F11H         LINE#         3490
  C:7F17H         LINE#         3491
  C:7F17H         LINE#         3492
  C:7F17H         LINE#         3493
  C:7F17H         LINE#         3494
  C:7F1AH         LINE#         3495
  C:7F1CH         LINE#         3496
BL51 BANKED LINKER/LOCATER V6.22.2.0                                                  03/24/2020  19:38:01  PAGE 55


  C:7F1CH         LINE#         3498
  C:7F2AH         LINE#         3499
  C:7F2AH         LINE#         3500
  C:7F30H         LINE#         3502
  C:7F3AH         LINE#         3503
  C:7F3AH         LINE#         3504
  C:7F3AH         LINE#         3505
  C:7F3DH         LINE#         3506
  C:7F40H         LINE#         3507
  C:7F45H         LINE#         3508
  C:7F47H         LINE#         3509
  C:7F49H         LINE#         3510
  C:7F49H         LINE#         3511
  C:7F4BH         LINE#         3513
  C:7F4BH         LINE#         3514
  C:7F50H         LINE#         3515
  C:7F50H         LINE#         3517
  C:7F5EH         LINE#         3518
  C:7F5EH         LINE#         3519
  C:7F64H         LINE#         3521
  C:7F6EH         LINE#         3522
  C:7F6EH         LINE#         3523
  C:7F6EH         LINE#         3524
  C:7F6EH         LINE#         3525
  C:7F71H         LINE#         3526
  C:7F76H         LINE#         3527
  C:7F78H         LINE#         3528
  C:7F7AH         LINE#         3529
  C:7F7AH         LINE#         3530
  C:7F7CH         LINE#         3532
  C:7F7CH         LINE#         3533
  C:7F81H         LINE#         3534
  C:7F81H         LINE#         3536
  C:7F8CH         LINE#         3537
  C:7F8CH         LINE#         3538
  C:7F93H         LINE#         3539
  C:7F93H         LINE#         3540
  C:7F96H         LINE#         3541
  C:7F9DH         LINE#         3542
  C:7FA0H         LINE#         3543
  C:7FA3H         LINE#         3544
  C:7FA6H         LINE#         3545
  C:7FA8H         LINE#         3546
  C:7FAAH         LINE#         3547
  C:7FAAH         LINE#         3548
  -------         ENDPROC       CANRESUME
  -------         PROC          _ONOFFOUTPUT
  D:0007H         SYMBOL        index
  C:8C4BH         LINE#         3554
  C:8C4BH         LINE#         3555
  C:8C4BH         LINE#         3556
  C:8C54H         LINE#         3557
  C:8C56H         LINE#         3558
  C:8C5DH         LINE#         3559
  C:8C60H         LINE#         3560
  C:8C63H         LINE#         3561
  C:8C65H         LINE#         3562
BL51 BANKED LINKER/LOCATER V6.22.2.0                                                  03/24/2020  19:38:01  PAGE 56


  -------         ENDPROC       _ONOFFOUTPUT
  -------         PROC          ONOFFHOOK
  -------         DO            
  D:0004H         SYMBOL        i
  -------         ENDDO         
  C:132CH         LINE#         3568
  C:132CH         LINE#         3569
  C:132CH         LINE#         3572
  C:133CH         LINE#         3573
  C:133CH         LINE#         3574
  C:1342H         LINE#         3575
  C:1348H         LINE#         3576
  C:134EH         LINE#         3578
  C:14A6H         LINE#         3579
  C:14A6H         LINE#         3580
  C:14A6H         LINE#         3581
  C:14A8H         LINE#         3583
  C:14A8H         LINE#         3584
  C:14A8H         LINE#         3585
  C:14A8H         LINE#         3586
  C:14ABH         LINE#         3588
  C:14ABH         LINE#         3589
  C:14ADH         LINE#         3591
  C:14ADH         LINE#         3592
  C:14ADH         LINE#         3593
  C:14ADH         LINE#         3594
  C:14B0H         LINE#         3596
  C:14B0H         LINE#         3597
  C:14B2H         LINE#         3599
  C:14B2H         LINE#         3600
  C:14B2H         LINE#         3601
  C:14B2H         LINE#         3602
  C:14B5H         LINE#         3604
  C:14B5H         LINE#         3605
  C:14B7H         LINE#         3607
  C:14B7H         LINE#         3608
  C:14B7H         LINE#         3609
  C:14B7H         LINE#         3610
  C:14BAH         LINE#         3612
  C:14BAH         LINE#         3613
  C:14BCH         LINE#         3615
  C:14BCH         LINE#         3616
  C:14BCH         LINE#         3617
  C:14BCH         LINE#         3618
  C:14BFH         LINE#         3620
  C:14BFH         LINE#         3621
  C:14C1H         LINE#         3623
  C:14C1H         LINE#         3624
  C:14C1H         LINE#         3625
  C:14C1H         LINE#         3626
  C:14C4H         LINE#         3628
  C:14C4H         LINE#         3629
  C:14C6H         LINE#         3631
  C:14C6H         LINE#         3632
  C:14C6H         LINE#         3633
  C:14C6H         LINE#         3634
  C:14C9H         LINE#         3636
BL51 BANKED LINKER/LOCATER V6.22.2.0                                                  03/24/2020  19:38:01  PAGE 57


  C:14C9H         LINE#         3637
  C:14CBH         LINE#         3639
  C:14CBH         LINE#         3640
  C:14CBH         LINE#         3641
  C:14CBH         LINE#         3642
  C:14CEH         LINE#         3644
  C:14CEH         LINE#         3645
  C:14D0H         LINE#         3647
  C:14D0H         LINE#         3648
  C:14D0H         LINE#         3649
  C:14D0H         LINE#         3650
  C:14D3H         LINE#         3652
  C:14D3H         LINE#         3653
  C:14D5H         LINE#         3655
  C:14D5H         LINE#         3656
  C:14D5H         LINE#         3657
  C:14D5H         LINE#         3658
  C:14D8H         LINE#         3660
  C:14D8H         LINE#         3661
  C:14DAH         LINE#         3663
  C:14DAH         LINE#         3664
  C:14DAH         LINE#         3665
  C:14DAH         LINE#         3666
  C:14DDH         LINE#         3668
  C:14DDH         LINE#         3669
  C:14DFH         LINE#         3671
  C:14DFH         LINE#         3672
  C:14DFH         LINE#         3673
  C:14DFH         LINE#         3674
  C:14E2H         LINE#         3676
  C:14E2H         LINE#         3677
  C:14E4H         LINE#         3679
  C:14E4H         LINE#         3680
  C:14E4H         LINE#         3681
  C:14E4H         LINE#         3682
  C:14E7H         LINE#         3684
  C:14E7H         LINE#         3685
  C:14E9H         LINE#         3687
  C:14E9H         LINE#         3688
  C:14E9H         LINE#         3689
  C:14E9H         LINE#         3690
  C:14ECH         LINE#         3692
  C:14ECH         LINE#         3693
  C:14EEH         LINE#         3695
  C:14EEH         LINE#         3696
  C:14EEH         LINE#         3697
  C:14EEH         LINE#         3698
  C:14F1H         LINE#         3700
  C:14F1H         LINE#         3701
  C:14F3H         LINE#         3703
  C:14F3H         LINE#         3704
  C:14F3H         LINE#         3705
  C:14F3H         LINE#         3706
  C:14F6H         LINE#         3708
  C:14F6H         LINE#         3709
  C:14F8H         LINE#         3711
  C:14F8H         LINE#         3712
BL51 BANKED LINKER/LOCATER V6.22.2.0                                                  03/24/2020  19:38:01  PAGE 58


  C:14F8H         LINE#         3713
  C:14F8H         LINE#         3714
  C:14FBH         LINE#         3716
  C:14FBH         LINE#         3717
  C:14FDH         LINE#         3719
  C:14FDH         LINE#         3720
  C:14FDH         LINE#         3721
  C:14FDH         LINE#         3722
  C:1500H         LINE#         3724
  C:1500H         LINE#         3725
  C:1502H         LINE#         3727
  C:1502H         LINE#         3728
  C:1502H         LINE#         3729
  C:1502H         LINE#         3730
  C:1505H         LINE#         3732
  C:1505H         LINE#         3733
  C:1507H         LINE#         3735
  C:1507H         LINE#         3736
  C:1507H         LINE#         3737
  C:1507H         LINE#         3738
  C:150AH         LINE#         3740
  C:150AH         LINE#         3741
  C:150CH         LINE#         3743
  C:150CH         LINE#         3744
  C:150CH         LINE#         3745
  C:150CH         LINE#         3746
  C:150FH         LINE#         3748
  C:150FH         LINE#         3749
  C:1511H         LINE#         3751
  C:1511H         LINE#         3752
  C:1511H         LINE#         3753
  C:1511H         LINE#         3754
  C:1514H         LINE#         3756
  C:1514H         LINE#         3757
  C:1516H         LINE#         3759
  C:1516H         LINE#         3760
  C:1516H         LINE#         3761
  C:1516H         LINE#         3762
  C:1519H         LINE#         3764
  C:1519H         LINE#         3765
  C:151BH         LINE#         3767
  C:151BH         LINE#         3768
  C:151BH         LINE#         3769
  C:151BH         LINE#         3770
  C:151EH         LINE#         3772
  C:151EH         LINE#         3773
  C:1520H         LINE#         3775
  C:1520H         LINE#         3776
  C:1520H         LINE#         3777
  C:1520H         LINE#         3778
  C:1523H         LINE#         3780
  C:1523H         LINE#         3781
  C:1525H         LINE#         3783
  C:1525H         LINE#         3784
  C:1525H         LINE#         3785
  C:1525H         LINE#         3786
  C:1528H         LINE#         3788
BL51 BANKED LINKER/LOCATER V6.22.2.0                                                  03/24/2020  19:38:01  PAGE 59


  C:1528H         LINE#         3789
  C:152AH         LINE#         3791
  C:152AH         LINE#         3792
  C:152AH         LINE#         3793
  C:152AH         LINE#         3794
  C:152DH         LINE#         3796
  C:152DH         LINE#         3797
  C:152FH         LINE#         3799
  C:152FH         LINE#         3800
  C:152FH         LINE#         3801
  C:152FH         LINE#         3802
  C:1532H         LINE#         3804
  C:1532H         LINE#         3805
  C:153BH         LINE#         3806
  C:1540H         LINE#         3807
  C:1540H         LINE#         3808
  C:1540H         LINE#         3810
  C:1540H         LINE#         3811
  C:1540H         LINE#         3812
  C:1540H         LINE#         3813
  C:1542H         LINE#         3815
  C:1542H         LINE#         3816
  C:154BH         LINE#         3817
  C:1550H         LINE#         3818
  C:1550H         LINE#         3819
  C:1550H         LINE#         3821
  C:1550H         LINE#         3822
  C:1550H         LINE#         3823
  C:1550H         LINE#         3824
  C:1552H         LINE#         3826
  C:1552H         LINE#         3827
  C:155BH         LINE#         3828
  C:1560H         LINE#         3829
  C:1560H         LINE#         3830
  C:1560H         LINE#         3832
  C:1560H         LINE#         3833
  C:1560H         LINE#         3834
  C:1560H         LINE#         3835
  C:1562H         LINE#         3837
  C:1562H         LINE#         3838
  C:156BH         LINE#         3839
  C:1570H         LINE#         3840
  C:1570H         LINE#         3841
  C:1570H         LINE#         3843
  C:1570H         LINE#         3844
  C:1570H         LINE#         3845
  C:1570H         LINE#         3846
  C:1572H         LINE#         3848
  C:1572H         LINE#         3849
  C:157BH         LINE#         3850
  C:1580H         LINE#         3851
  C:1580H         LINE#         3852
  C:1580H         LINE#         3854
  C:1580H         LINE#         3855
  C:1580H         LINE#         3856
  C:1580H         LINE#         3857
  C:1582H         LINE#         3859
BL51 BANKED LINKER/LOCATER V6.22.2.0                                                  03/24/2020  19:38:01  PAGE 60


  C:1582H         LINE#         3860
  C:158BH         LINE#         3861
  C:1590H         LINE#         3862
  C:1590H         LINE#         3863
  C:1590H         LINE#         3865
  C:1590H         LINE#         3866
  C:1590H         LINE#         3867
  C:1590H         LINE#         3868
  C:1592H         LINE#         3870
  C:1592H         LINE#         3871
  C:159BH         LINE#         3872
  C:15A0H         LINE#         3873
  C:15A0H         LINE#         3874
  C:15A0H         LINE#         3876
  C:15A0H         LINE#         3877
  C:15A0H         LINE#         3878
  C:15A0H         LINE#         3879
  C:15A2H         LINE#         3881
  C:15A2H         LINE#         3882
  C:15ABH         LINE#         3883
  C:15B1H         LINE#         3884
  C:15B5H         LINE#         3885
  C:15B8H         LINE#         3887
  C:15B8H         LINE#         3888
  C:15B8H         LINE#         3889
  C:15B8H         LINE#         3890
  C:15BBH         LINE#         3892
  C:15BBH         LINE#         3893
  C:15C4H         LINE#         3894
  C:15CAH         LINE#         3895
  C:15CEH         LINE#         3896
  C:15D1H         LINE#         3898
  C:15D1H         LINE#         3899
  C:15D1H         LINE#         3900
  C:15D1H         LINE#         3901
  C:15D4H         LINE#         3903
  C:15D4H         LINE#         3904
  C:15DDH         LINE#         3905
  C:15E3H         LINE#         3906
  C:15E7H         LINE#         3907
  C:15EAH         LINE#         3909
  C:15EAH         LINE#         3910
  C:15EAH         LINE#         3911
  C:15EAH         LINE#         3912
  C:15EDH         LINE#         3914
  C:15EDH         LINE#         3915
  C:15F6H         LINE#         3916
  C:15FCH         LINE#         3917
  C:1600H         LINE#         3918
  C:1603H         LINE#         3920
  C:1603H         LINE#         3921
  C:1603H         LINE#         3922
  C:1603H         LINE#         3923
  C:1606H         LINE#         3925
  C:1606H         LINE#         3926
  C:160FH         LINE#         3927
  C:1615H         LINE#         3928
BL51 BANKED LINKER/LOCATER V6.22.2.0                                                  03/24/2020  19:38:01  PAGE 61


  C:1619H         LINE#         3929
  C:161CH         LINE#         3931
  C:161CH         LINE#         3932
  C:161CH         LINE#         3933
  C:161CH         LINE#         3934
  C:161FH         LINE#         3936
  C:161FH         LINE#         3937
  C:1628H         LINE#         3938
  C:162EH         LINE#         3939
  C:1632H         LINE#         3940
  C:1635H         LINE#         3942
  C:1635H         LINE#         3943
  C:1635H         LINE#         3944
  C:1635H         LINE#         3945
  C:1638H         LINE#         3947
  C:1638H         LINE#         3948
  C:1641H         LINE#         3949
  C:1647H         LINE#         3950
  C:164BH         LINE#         3951
  C:164EH         LINE#         3953
  C:164EH         LINE#         3954
  C:164EH         LINE#         3955
  C:164EH         LINE#         3956
  C:1651H         LINE#         3958
  C:1651H         LINE#         3959
  C:165AH         LINE#         3960
  C:1660H         LINE#         3961
  C:1664H         LINE#         3962
  C:1667H         LINE#         3964
  C:1667H         LINE#         3965
  C:1667H         LINE#         3966
  C:1667H         LINE#         3967
  C:166AH         LINE#         3969
  C:166AH         LINE#         3970
  C:1673H         LINE#         3971
  C:1679H         LINE#         3972
  C:167DH         LINE#         3973
  C:1680H         LINE#         3975
  C:1680H         LINE#         3976
  C:1680H         LINE#         3977
  C:1680H         LINE#         3978
  C:1683H         LINE#         3980
  C:1683H         LINE#         3981
  C:168CH         LINE#         3982
  C:1692H         LINE#         3983
  C:1696H         LINE#         3984
  C:1699H         LINE#         3986
  C:1699H         LINE#         3987
  C:1699H         LINE#         3988
  C:1699H         LINE#         3989
  C:169CH         LINE#         3991
  C:169CH         LINE#         3992
  C:16A5H         LINE#         3993
  C:16ABH         LINE#         3994
  C:16AFH         LINE#         3995
  C:16B2H         LINE#         3997
  C:16B2H         LINE#         3998
BL51 BANKED LINKER/LOCATER V6.22.2.0                                                  03/24/2020  19:38:01  PAGE 62


  C:16B2H         LINE#         3999
  C:16B2H         LINE#         4000
  C:16B5H         LINE#         4002
  C:16B5H         LINE#         4003
  C:16BEH         LINE#         4004
  C:16C4H         LINE#         4005
  C:16C8H         LINE#         4006
  C:16CBH         LINE#         4008
  C:16CBH         LINE#         4009
  C:16CBH         LINE#         4010
  C:16CBH         LINE#         4011
  C:16CEH         LINE#         4013
  C:16CEH         LINE#         4014
  C:16D7H         LINE#         4015
  C:16DDH         LINE#         4016
  C:16E1H         LINE#         4017
  C:16E4H         LINE#         4019
  C:16E4H         LINE#         4020
  C:16E4H         LINE#         4021
  C:16E4H         LINE#         4022
  C:16E7H         LINE#         4024
  C:16E7H         LINE#         4025
  C:16F0H         LINE#         4026
  C:16F6H         LINE#         4027
  C:16FAH         LINE#         4028
  C:16FDH         LINE#         4030
  C:16FDH         LINE#         4031
  C:16FDH         LINE#         4032
  C:16FDH         LINE#         4033
  C:1700H         LINE#         4035
  C:1700H         LINE#         4036
  C:1709H         LINE#         4037
  C:170FH         LINE#         4038
  C:1713H         LINE#         4039
  C:1716H         LINE#         4041
  C:1716H         LINE#         4042
  C:1716H         LINE#         4043
  C:1716H         LINE#         4044
  C:1719H         LINE#         4046
  C:1719H         LINE#         4047
  C:1722H         LINE#         4048
  C:1728H         LINE#         4049
  C:172CH         LINE#         4050
  C:172FH         LINE#         4052
  C:172FH         LINE#         4053
  C:172FH         LINE#         4054
  C:172FH         LINE#         4055
  C:1732H         LINE#         4057
  C:1732H         LINE#         4058
  C:173BH         LINE#         4059
  C:1741H         LINE#         4060
  C:1745H         LINE#         4061
  C:1748H         LINE#         4063
  C:1748H         LINE#         4064
  C:1748H         LINE#         4065
  C:1748H         LINE#         4066
  C:174BH         LINE#         4068
BL51 BANKED LINKER/LOCATER V6.22.2.0                                                  03/24/2020  19:38:01  PAGE 63


  C:174BH         LINE#         4069
  C:1754H         LINE#         4070
  C:175AH         LINE#         4071
  C:175EH         LINE#         4072
  C:1761H         LINE#         4074
  C:1761H         LINE#         4075
  C:1761H         LINE#         4076
  C:1761H         LINE#         4077
  C:1764H         LINE#         4079
  C:1764H         LINE#         4080
  C:176DH         LINE#         4081
  C:1773H         LINE#         4082
  C:1777H         LINE#         4083
  C:177AH         LINE#         4085
  C:177AH         LINE#         4086
  C:177AH         LINE#         4087
  C:177AH         LINE#         4088
  C:177DH         LINE#         4090
  C:177DH         LINE#         4091
  C:1786H         LINE#         4092
  C:178CH         LINE#         4093
  C:1790H         LINE#         4094
  C:1793H         LINE#         4096
  C:1793H         LINE#         4097
  C:1793H         LINE#         4098
  C:1793H         LINE#         4099
  C:1796H         LINE#         4101
  C:1796H         LINE#         4102
  C:179FH         LINE#         4103
  C:17A5H         LINE#         4104
  C:17A9H         LINE#         4105
  C:17ACH         LINE#         4107
  C:17ACH         LINE#         4108
  C:17ACH         LINE#         4109
  C:17ACH         LINE#         4110
  C:17AFH         LINE#         4112
  C:17AFH         LINE#         4113
  C:17B8H         LINE#         4114
  C:17BEH         LINE#         4115
  C:17C2H         LINE#         4116
  C:17C5H         LINE#         4118
  C:17C5H         LINE#         4119
  C:17C5H         LINE#         4120
  C:17C5H         LINE#         4121
  C:17C8H         LINE#         4123
  C:17C8H         LINE#         4124
  C:17D1H         LINE#         4125
  C:17D7H         LINE#         4126
  C:17DBH         LINE#         4127
  C:17DEH         LINE#         4129
  C:17DEH         LINE#         4130
  C:17DEH         LINE#         4131
  C:17DEH         LINE#         4132
  C:17E1H         LINE#         4134
  C:17E1H         LINE#         4135
  C:17EAH         LINE#         4136
  C:17F0H         LINE#         4137
BL51 BANKED LINKER/LOCATER V6.22.2.0                                                  03/24/2020  19:38:01  PAGE 64


  C:17F4H         LINE#         4138
  C:17F7H         LINE#         4140
  C:17F7H         LINE#         4141
  C:17F7H         LINE#         4142
  C:17F7H         LINE#         4143
  C:17FAH         LINE#         4145
  C:17FAH         LINE#         4146
  C:1803H         LINE#         4147
  C:1809H         LINE#         4148
  C:180DH         LINE#         4149
  C:1810H         LINE#         4151
  C:1810H         LINE#         4152
  C:1810H         LINE#         4153
  C:1810H         LINE#         4154
  C:1813H         LINE#         4156
  C:1813H         LINE#         4157
  C:1815H         LINE#         4159
  C:1815H         LINE#         4160
  C:1815H         LINE#         4161
  C:1815H         LINE#         4162
  C:1817H         LINE#         4164
  C:1817H         LINE#         4165
  C:1819H         LINE#         4167
  C:1819H         LINE#         4168
  C:1819H         LINE#         4169
  C:1819H         LINE#         4170
  C:181BH         LINE#         4172
  C:181BH         LINE#         4173
  C:181DH         LINE#         4175
  C:181DH         LINE#         4176
  C:181DH         LINE#         4177
  C:181DH         LINE#         4178
  C:181FH         LINE#         4180
  C:181FH         LINE#         4181
  C:1821H         LINE#         4183
  C:1821H         LINE#         4184
  C:1821H         LINE#         4185
  C:1821H         LINE#         4186
  C:1823H         LINE#         4188
  C:1823H         LINE#         4189
  C:1825H         LINE#         4191
  C:1825H         LINE#         4192
  C:1825H         LINE#         4193
  C:1825H         LINE#         4194
  C:1827H         LINE#         4196
  C:1827H         LINE#         4197
  C:1829H         LINE#         4199
  C:1829H         LINE#         4200
  C:1829H         LINE#         4201
  C:1829H         LINE#         4202
  C:182BH         LINE#         4204
  C:182BH         LINE#         4205
  C:182DH         LINE#         4207
  C:182DH         LINE#         4208
  C:182DH         LINE#         4209
  C:182DH         LINE#         4210
  C:182FH         LINE#         4212
BL51 BANKED LINKER/LOCATER V6.22.2.0                                                  03/24/2020  19:38:01  PAGE 65


  C:182FH         LINE#         4213
  C:1831H         LINE#         4215
  C:1831H         LINE#         4216
  C:1831H         LINE#         4217
  C:1831H         LINE#         4218
  C:1833H         LINE#         4220
  C:1833H         LINE#         4221
  C:1835H         LINE#         4223
  C:1835H         LINE#         4224
  C:1835H         LINE#         4225
  C:1835H         LINE#         4226
  C:1837H         LINE#         4228
  C:1837H         LINE#         4229
  C:1839H         LINE#         4231
  C:1839H         LINE#         4232
  C:1839H         LINE#         4233
  C:1839H         LINE#         4234
  C:183BH         LINE#         4236
  C:183BH         LINE#         4237
  C:183DH         LINE#         4239
  C:183DH         LINE#         4240
  C:183DH         LINE#         4241
  C:183DH         LINE#         4242
  C:183FH         LINE#         4244
  C:183FH         LINE#         4245
  C:1841H         LINE#         4247
  C:1841H         LINE#         4248
  C:1841H         LINE#         4249
  C:1841H         LINE#         4250
  C:1843H         LINE#         4252
  C:1843H         LINE#         4253
  C:1845H         LINE#         4255
  C:1845H         LINE#         4256
  C:1845H         LINE#         4257
  C:1845H         LINE#         4258
  C:1847H         LINE#         4260
  C:1847H         LINE#         4261
  C:1849H         LINE#         4263
  C:1849H         LINE#         4264
  C:1849H         LINE#         4265
  C:1849H         LINE#         4266
  C:184BH         LINE#         4268
  C:184BH         LINE#         4269
  C:184DH         LINE#         4271
  C:184DH         LINE#         4272
  C:184DH         LINE#         4273
  C:184DH         LINE#         4274
  C:184FH         LINE#         4276
  C:184FH         LINE#         4277
  C:1851H         LINE#         4279
  C:1851H         LINE#         4280
  C:1851H         LINE#         4281
  C:1851H         LINE#         4282
  C:1853H         LINE#         4284
  C:1853H         LINE#         4285
  C:1855H         LINE#         4287
  C:1855H         LINE#         4288
BL51 BANKED LINKER/LOCATER V6.22.2.0                                                  03/24/2020  19:38:01  PAGE 66


  C:1855H         LINE#         4289
  C:1855H         LINE#         4290
  C:1857H         LINE#         4292
  C:1857H         LINE#         4293
  C:1859H         LINE#         4295
  C:1859H         LINE#         4296
  C:1859H         LINE#         4297
  C:1859H         LINE#         4298
  C:185BH         LINE#         4300
  C:185BH         LINE#         4301
  C:185DH         LINE#         4303
  C:185DH         LINE#         4304
  C:185DH         LINE#         4305
  C:185DH         LINE#         4306
  C:185FH         LINE#         4308
  C:185FH         LINE#         4309
  C:1864H         LINE#         4311
  C:1864H         LINE#         4312
  C:1864H         LINE#         4313
  C:1864H         LINE#         4314
  C:1867H         LINE#         4316
  C:1867H         LINE#         4317
  C:1885H         LINE#         4318
  C:188BH         LINE#         4319
  C:1895H         LINE#         4320
  C:1895H         LINE#         4321
  C:1897H         LINE#         4322
  C:1897H         LINE#         4324
  C:1897H         LINE#         4325
  C:1897H         LINE#         4326
  C:1897H         LINE#         4327
  C:189AH         LINE#         4328
  C:189AH         LINE#         4329
  C:18B8H         LINE#         4330
  C:18BEH         LINE#         4331
  C:18C8H         LINE#         4332
  C:18C8H         LINE#         4333
  C:18CAH         LINE#         4334
  C:18CAH         LINE#         4336
  C:18CAH         LINE#         4337
  C:18CAH         LINE#         4338
  C:18CAH         LINE#         4339
  C:18CDH         LINE#         4340
  C:18CDH         LINE#         4341
  C:18EBH         LINE#         4342
  C:18F1H         LINE#         4343
  C:18FBH         LINE#         4344
  C:18FBH         LINE#         4345
  C:18FDH         LINE#         4346
  C:18FDH         LINE#         4348
  C:18FDH         LINE#         4349
  C:18FDH         LINE#         4350
  C:18FDH         LINE#         4351
  C:1900H         LINE#         4352
  C:1900H         LINE#         4353
  C:191EH         LINE#         4354
  C:1924H         LINE#         4355
BL51 BANKED LINKER/LOCATER V6.22.2.0                                                  03/24/2020  19:38:01  PAGE 67


  C:192EH         LINE#         4356
  C:192EH         LINE#         4357
  C:1930H         LINE#         4358
  C:1930H         LINE#         4360
  C:1930H         LINE#         4361
  C:1930H         LINE#         4362
  C:1930H         LINE#         4363
  C:1933H         LINE#         4364
  C:1933H         LINE#         4365
  C:1951H         LINE#         4366
  C:1957H         LINE#         4367
  C:1961H         LINE#         4368
  C:1961H         LINE#         4369
  C:1963H         LINE#         4370
  C:1963H         LINE#         4372
  C:1963H         LINE#         4373
  C:1963H         LINE#         4374
  C:1963H         LINE#         4375
  C:1966H         LINE#         4376
  C:1966H         LINE#         4377
  C:1984H         LINE#         4378
  C:198AH         LINE#         4379
  C:1994H         LINE#         4380
  C:1994H         LINE#         4381
  C:1996H         LINE#         4382
  C:1996H         LINE#         4384
  C:1996H         LINE#         4385
  C:1996H         LINE#         4386
  C:1996H         LINE#         4387
  C:1999H         LINE#         4388
  C:1999H         LINE#         4389
  C:19B7H         LINE#         4390
  C:19BDH         LINE#         4391
  C:19C7H         LINE#         4392
  C:19C7H         LINE#         4393
  C:19C9H         LINE#         4394
  C:19C9H         LINE#         4396
  C:19C9H         LINE#         4397
  C:19C9H         LINE#         4398
  C:19C9H         LINE#         4399
  C:19CCH         LINE#         4400
  C:19CCH         LINE#         4401
  C:19EAH         LINE#         4402
  C:19F0H         LINE#         4403
  C:19FAH         LINE#         4404
  C:19FAH         LINE#         4405
  C:19FCH         LINE#         4406
  C:19FCH         LINE#         4408
  C:19FCH         LINE#         4409
  C:19FCH         LINE#         4410
  C:19FCH         LINE#         4411
  C:19FFH         LINE#         4412
  C:19FFH         LINE#         4413
  C:1A1DH         LINE#         4414
  C:1A23H         LINE#         4415
  C:1A2DH         LINE#         4416
  C:1A2DH         LINE#         4417
BL51 BANKED LINKER/LOCATER V6.22.2.0                                                  03/24/2020  19:38:01  PAGE 68


  C:1A2FH         LINE#         4418
  C:1A2FH         LINE#         4420
  C:1A2FH         LINE#         4421
  C:1A2FH         LINE#         4422
  C:1A2FH         LINE#         4423
  C:1A32H         LINE#         4424
  C:1A32H         LINE#         4425
  C:1A50H         LINE#         4426
  C:1A56H         LINE#         4427
  C:1A60H         LINE#         4428
  C:1A60H         LINE#         4429
  C:1A62H         LINE#         4430
  C:1A62H         LINE#         4432
  C:1A62H         LINE#         4433
  C:1A62H         LINE#         4434
  C:1A62H         LINE#         4435
  C:1A65H         LINE#         4436
  C:1A65H         LINE#         4437
  C:1A83H         LINE#         4438
  C:1A89H         LINE#         4439
  C:1A93H         LINE#         4440
  C:1A93H         LINE#         4441
  C:1A95H         LINE#         4442
  C:1A95H         LINE#         4444
  C:1A95H         LINE#         4445
  C:1A95H         LINE#         4446
  C:1A95H         LINE#         4447
  C:1A98H         LINE#         4448
  C:1A98H         LINE#         4449
  C:1AB6H         LINE#         4450
  C:1ABCH         LINE#         4451
  C:1AC6H         LINE#         4452
  C:1AC6H         LINE#         4453
  C:1AC8H         LINE#         4454
  C:1AC8H         LINE#         4456
  C:1AC8H         LINE#         4457
  C:1AC8H         LINE#         4458
  C:1AC8H         LINE#         4459
  C:1ACBH         LINE#         4460
  C:1ACBH         LINE#         4461
  C:1AE9H         LINE#         4462
  C:1AEFH         LINE#         4463
  C:1AF9H         LINE#         4464
  C:1AF9H         LINE#         4465
  C:1AFBH         LINE#         4466
  C:1AFBH         LINE#         4468
  C:1AFBH         LINE#         4469
  C:1AFBH         LINE#         4470
  C:1AFBH         LINE#         4471
  C:1AFEH         LINE#         4472
  C:1AFEH         LINE#         4473
  C:1B1CH         LINE#         4474
  C:1B22H         LINE#         4475
  C:1B2CH         LINE#         4476
  C:1B2CH         LINE#         4477
  C:1B2EH         LINE#         4478
  C:1B2EH         LINE#         4480
BL51 BANKED LINKER/LOCATER V6.22.2.0                                                  03/24/2020  19:38:01  PAGE 69


  C:1B2EH         LINE#         4481
  C:1B2EH         LINE#         4482
  C:1B2EH         LINE#         4483
  C:1B31H         LINE#         4485
  C:1B31H         LINE#         4486
  C:1B4FH         LINE#         4487
  C:1B55H         LINE#         4488
  C:1B5FH         LINE#         4489
  C:1B5FH         LINE#         4490
  C:1B61H         LINE#         4491
  C:1B61H         LINE#         4493
  C:1B61H         LINE#         4494
  C:1B61H         LINE#         4495
  C:1B61H         LINE#         4496
  C:1B64H         LINE#         4497
  C:1B64H         LINE#         4498
  C:1B82H         LINE#         4499
  C:1B88H         LINE#         4500
  C:1B92H         LINE#         4501
  C:1B92H         LINE#         4502
  C:1B94H         LINE#         4503
  C:1B94H         LINE#         4505
  C:1B94H         LINE#         4506
  C:1B94H         LINE#         4507
  C:1B94H         LINE#         4508
  C:1B97H         LINE#         4509
  C:1B97H         LINE#         4510
  C:1BB5H         LINE#         4511
  C:1BBBH         LINE#         4512
  C:1BC5H         LINE#         4513
  C:1BC5H         LINE#         4514
  C:1BC7H         LINE#         4515
  C:1BC7H         LINE#         4517
  C:1BC7H         LINE#         4518
  C:1BC7H         LINE#         4519
  C:1BC7H         LINE#         4520
  C:1BCAH         LINE#         4521
  C:1BCAH         LINE#         4522
  C:1BE8H         LINE#         4523
  C:1BEEH         LINE#         4524
  C:1BF8H         LINE#         4525
  C:1BF8H         LINE#         4526
  C:1BFAH         LINE#         4527
  C:1BFAH         LINE#         4529
  C:1BFAH         LINE#         4530
  C:1BFAH         LINE#         4531
  C:1BFAH         LINE#         4532
  C:1BFDH         LINE#         4533
  C:1BFDH         LINE#         4535
  C:1BFDH         LINE#         4536
  C:1BFDH         LINE#         4537
  C:1BFDH         LINE#         4538
  C:1C00H         LINE#         4539
  C:1C00H         LINE#         4546
  C:1C00H         LINE#         4547
  C:1C06H         LINE#         4548
  C:1C0AH         LINE#         4549
BL51 BANKED LINKER/LOCATER V6.22.2.0                                                  03/24/2020  19:38:01  PAGE 70


  C:1C0DH         LINE#         4551
  C:1C0DH         LINE#         4552
  C:1C0DH         LINE#         4553
  C:1C0DH         LINE#         4554
  C:1C10H         LINE#         4555
  C:1C10H         LINE#         4556
  C:1C16H         LINE#         4557
  C:1C1AH         LINE#         4558
  C:1C1DH         LINE#         4560
  C:1C1DH         LINE#         4561
  C:1C1DH         LINE#         4562
  C:1C1DH         LINE#         4563
  C:1C1FH         LINE#         4565
  C:1C1FH         LINE#         4566
  C:1C25H         LINE#         4567
  C:1C29H         LINE#         4568
  C:1C2CH         LINE#         4570
  C:1C2CH         LINE#         4571
  C:1C2CH         LINE#         4572
  C:1C2CH         LINE#         4573
  C:1C2EH         LINE#         4574
  C:1C2EH         LINE#         4575
  C:1C34H         LINE#         4576
  C:1C38H         LINE#         4577
  C:1C3CH         LINE#         4579
  C:1C3FH         LINE#         4580
  C:1C3FH         LINE#         4581
  C:1C6BH         LINE#         4582
  C:1C71H         LINE#         4583
  C:1C7BH         LINE#         4584
  C:1C7BH         LINE#         4585
  C:1C7DH         LINE#         4586
  C:1C7DH         LINE#         4587
  C:1C88H         LINE#         4589
  C:1C88H         LINE#         4590
  C:1C88H         LINE#         4591
  C:1C88H         LINE#         4592
  C:1C8AH         LINE#         4594
  C:1C8AH         LINE#         4595
  C:1C90H         LINE#         4596
  C:1C94H         LINE#         4597
  C:1C98H         LINE#         4599
  C:1C98H         LINE#         4600
  C:1C98H         LINE#         4601
  C:1C98H         LINE#         4602
  C:1C9AH         LINE#         4604
  C:1C9AH         LINE#         4605
  C:1CA0H         LINE#         4606
  C:1CA4H         LINE#         4607
  C:1CA8H         LINE#         4609
  C:1CA8H         LINE#         4610
  C:1CA8H         LINE#         4611
  C:1CA8H         LINE#         4612
  C:1CAAH         LINE#         4614
  C:1CAAH         LINE#         4615
  C:1CAAH         LINE#         4616
  C:1CADH         LINE#         4617
BL51 BANKED LINKER/LOCATER V6.22.2.0                                                  03/24/2020  19:38:01  PAGE 71


  C:1CB0H         LINE#         4618
  C:1CB2H         LINE#         4620
  C:1CB2H         LINE#         4621
  C:1CB2H         LINE#         4622
  C:1CB2H         LINE#         4623
  C:1CB4H         LINE#         4625
  C:1CB4H         LINE#         4626
  C:1CB4H         LINE#         4627
  C:1CB4H         LINE#         4628
  C:1CB7H         LINE#         4629
  C:1CB9H         LINE#         4631
  C:1CBFH         LINE#         4632
  C:1CC5H         LINE#         4633
  C:1CC8H         LINE#         4634
  C:1CCAH         LINE#         4636
  C:1CCAH         LINE#         4637
  C:1CD0H         LINE#         4638
  C:1CD6H         LINE#         4639
  C:1CDCH         LINE#         4640
  C:1CDCH         LINE#         4641
  C:1CDCH         LINE#         4643
  C:1CEEH         LINE#         4644
  C:1CFCH         LINE#         4646
  C:1D02H         LINE#         4647
  C:1D0CH         LINE#         4648
  C:1D0CH         LINE#         4649
  C:1D0EH         LINE#         4650
  C:1D0EH         LINE#         4651
  C:1D0EH         LINE#         4652
  -------         ENDPROC       ONOFFHOOK
  -------         PROC          _GET2_3_U
  D:003EH         SYMBOL        a
  D:0041H         SYMBOL        b
  D:0044H         SYMBOL        c
  C:814DH         LINE#         4658
  C:8153H         LINE#         4659
  C:8153H         LINE#         4660
  C:8176H         LINE#         4661
  C:8176H         LINE#         4662
  C:8179H         LINE#         4663
  C:8179H         LINE#         4665
  C:8179H         LINE#         4666
  C:8186H         LINE#         4667
  C:8186H         LINE#         4668
  C:8188H         LINE#         4669
  C:8197H         LINE#         4670
  C:8197H         LINE#         4671
  C:8199H         LINE#         4672
  C:8199H         LINE#         4674
  C:8199H         LINE#         4675
  C:81AFH         LINE#         4676
  C:81AFH         LINE#         4677
  C:81B1H         LINE#         4678
  C:81B7H         LINE#         4679
  C:81B7H         LINE#         4680
  C:81B9H         LINE#         4681
  C:81B9H         LINE#         4683
BL51 BANKED LINKER/LOCATER V6.22.2.0                                                  03/24/2020  19:38:01  PAGE 72


  C:81B9H         LINE#         4684
  C:81BDH         LINE#         4685
  C:81BDH         LINE#         4686
  C:81BFH         LINE#         4687
  C:81D1H         LINE#         4688
  C:81D3H         LINE#         4689
  C:81D6H         LINE#         4690
  C:81D6H         LINE#         4692
  C:81D6H         LINE#         4693
  C:81D8H         LINE#         4694
  C:81D8H         LINE#         4695
  C:81D8H         LINE#         4696
  C:81D8H         LINE#         4697
  C:81D8H         LINE#         4698
  -------         ENDPROC       _GET2_3_U
  -------         PROC          _GET2_3_F
  D:003EH         SYMBOL        a
  D:0041H         SYMBOL        b
  D:0044H         SYMBOL        c
  -------         DO            
  X:89C5H         SYMBOL        temp1
  X:89C9H         SYMBOL        temp2
  X:89CDH         SYMBOL        temp3
  -------         ENDDO         
  C:7895H         LINE#         4706
  C:789BH         LINE#         4707
  C:789BH         LINE#         4712
  C:78C9H         LINE#         4713
  C:78F7H         LINE#         4714
  C:7925H         LINE#         4716
  C:7964H         LINE#         4717
  C:7964H         LINE#         4718
  C:7967H         LINE#         4719
  C:7967H         LINE#         4721
  C:7967H         LINE#         4722
  C:797CH         LINE#         4723
  C:797CH         LINE#         4724
  C:798BH         LINE#         4725
  C:798DH         LINE#         4726
  C:798DH         LINE#         4728
  C:798DH         LINE#         4729
  C:79A2H         LINE#         4730
  C:79A2H         LINE#         4731
  C:79B1H         LINE#         4732
  C:79B3H         LINE#         4733
  C:79B3H         LINE#         4735
  C:79B3H         LINE#         4736
  C:79C8H         LINE#         4737
  C:79C8H         LINE#         4738
  C:79DAH         LINE#         4739
  C:79DDH         LINE#         4740
  C:79DDH         LINE#         4742
  C:79DDH         LINE#         4743
  C:79DFH         LINE#         4744
  C:79DFH         LINE#         4745
  C:79DFH         LINE#         4746
  C:79DFH         LINE#         4747
BL51 BANKED LINKER/LOCATER V6.22.2.0                                                  03/24/2020  19:38:01  PAGE 73


  C:79DFH         LINE#         4748
  -------         ENDPROC       _GET2_3_F
  -------         PROC          _GET2_3_I
  D:003EH         SYMBOL        a
  D:0041H         SYMBOL        b
  D:0044H         SYMBOL        c
  C:8000H         LINE#         4756
  C:8006H         LINE#         4757
  C:8006H         LINE#         4758
  C:8040H         LINE#         4759
  C:8040H         LINE#         4760
  C:8043H         LINE#         4761
  C:8043H         LINE#         4763
  C:8043H         LINE#         4764
  C:8062H         LINE#         4765
  C:8062H         LINE#         4766
  C:8068H         LINE#         4767
  C:806AH         LINE#         4768
  C:806AH         LINE#         4770
  C:806AH         LINE#         4771
  C:807AH         LINE#         4772
  C:807AH         LINE#         4773
  C:808EH         LINE#         4774
  C:8090H         LINE#         4775
  C:8090H         LINE#         4777
  C:8090H         LINE#         4778
  C:80AFH         LINE#         4779
  C:80AFH         LINE#         4780
  C:80BAH         LINE#         4781
  C:80BDH         LINE#         4782
  C:80BDH         LINE#         4784
  C:80BDH         LINE#         4785
  C:80BFH         LINE#         4786
  C:80BFH         LINE#         4787
  C:80BFH         LINE#         4788
  C:80BFH         LINE#         4789
  C:80BFH         LINE#         4790
  -------         ENDPROC       _GET2_3_I
  -------         PROC          EQU_ISR
  -------         DO            
  D:0047H         SYMBOL        temp
  -------         ENDDO         
  C:8554H         LINE#         4796
  C:855FH         LINE#         4800
  C:8565H         LINE#         4801
  C:856DH         LINE#         4802
  C:856DH         LINE#         4803
  C:8581H         LINE#         4804
  C:8587H         LINE#         4806
  C:8591H         LINE#         4807
  C:8591H         LINE#         4808
  C:8593H         LINE#         4809
  C:8595H         LINE#         4811
  C:8597H         LINE#         4812
  C:859AH         LINE#         4813
  C:859AH         LINE#         4814
  C:859CH         LINE#         4815
BL51 BANKED LINKER/LOCATER V6.22.2.0                                                  03/24/2020  19:38:01  PAGE 74


  C:85A4H         LINE#         4816
  C:85A4H         LINE#         4817
  C:85B9H         LINE#         4818
  C:85BFH         LINE#         4819
  C:85BFH         LINE#         4820
  -------         ENDPROC       EQU_ISR
  -------         PROC          CAN_ISR
  -------         DO            
  D:0048H         SYMBOL        IR
  -------         ENDDO         
  C:880AH         LINE#         4826
  C:8817H         LINE#         4830
  C:881DH         LINE#         4831
  C:8823H         LINE#         4832
  C:8823H         LINE#         4833
  C:8829H         LINE#         4834
  C:882CH         LINE#         4835
  C:882CH         LINE#         4837
  C:8834H         LINE#         4838
  C:8834H         LINE#         4839
  C:8837H         LINE#         4840
  C:8837H         LINE#         4842
  C:883DH         LINE#         4843
  C:8843H         LINE#         4844
  C:8843H         LINE#         4845
  C:8849H         LINE#         4846
  C:884CH         LINE#         4847
  C:884CH         LINE#         4849
  C:8854H         LINE#         4850
  C:8854H         LINE#         4851
  C:8857H         LINE#         4852
  C:8857H         LINE#         4853
  -------         ENDPROC       CAN_ISR
  -------         PROC          CANRXDA
  -------         DO            
  D:000EH         SYMBOL        i
  D:000EH         SYMBOL        dlc
  D:0049H         SYMBOL        length
  D:000FH         SYMBOL        fgEndFrame
  D:004AH         SYMBOL        p
  -------         ENDDO         
  C:75CDH         LINE#         4859
  C:75D2H         LINE#         4867
  C:75E7H         LINE#         4868
  C:75E7H         LINE#         4869
  C:75E9H         LINE#         4870
  C:75F0H         LINE#         4872
  C:75F5H         LINE#         4873
  C:75F5H         LINE#         4874
  C:75F7H         LINE#         4875
  C:75FDH         LINE#         4876
  C:7601H         LINE#         4877
  C:760AH         LINE#         4878
  C:760DH         LINE#         4879
  C:760FH         LINE#         4881
  C:760FH         LINE#         4882
  C:7619H         LINE#         4883
BL51 BANKED LINKER/LOCATER V6.22.2.0                                                  03/24/2020  19:38:01  PAGE 75


  C:7619H         LINE#         4884
  C:761FH         LINE#         4885
  C:7630H         LINE#         4886
  C:7632H         LINE#         4888
  C:7632H         LINE#         4889
  C:7635H         LINE#         4890
  C:7637H         LINE#         4891
  C:7637H         LINE#         4893
  C:763DH         LINE#         4906
  C:763FH         LINE#         4907
  C:763FH         LINE#         4909
  C:7647H         LINE#         4910
  C:7647H         LINE#         4911
  C:765CH         LINE#         4912
  C:7666H         LINE#         4913
  C:766EH         LINE#         4914
  C:7670H         LINE#         4915
  C:7673H         LINE#         4917
  C:7689H         LINE#         4918
  C:7689H         LINE#         4919
  C:76A2H         LINE#         4921
  C:76B5H         LINE#         4922
  C:76B5H         LINE#         4923
  C:76B7H         LINE#         4924
  C:76CDH         LINE#         4925
  C:76CDH         LINE#         4926
  C:76CDH         LINE#         4927
  C:76DDH         LINE#         4928
  C:76DDH         LINE#         4929
  C:76E0H         LINE#         4930
  C:76E0H         LINE#         4931
  C:76E2H         LINE#         4933
  C:76E2H         LINE#         4934
  C:76EAH         LINE#         4935
  C:76EAH         LINE#         4936
  C:76EDH         LINE#         4937
  C:76EDH         LINE#         4939
  C:76F5H         LINE#         4940
  C:76F5H         LINE#         4941
  C:76F8H         LINE#         4942
  C:76F8H         LINE#         4944
  C:76FAH         LINE#         4946
  C:76FAH         LINE#         4947
  C:7702H         LINE#         4948
  C:7702H         LINE#         4949
  C:7705H         LINE#         4950
  C:7705H         LINE#         4951
  C:7707H         LINE#         4953
  C:7707H         LINE#         4954
  C:770FH         LINE#         4955
  C:770FH         LINE#         4956
  C:7712H         LINE#         4957
  C:7712H         LINE#         4958
  C:7714H         LINE#         4960
  C:7714H         LINE#         4961
  C:771CH         LINE#         4962
  C:771CH         LINE#         4963
BL51 BANKED LINKER/LOCATER V6.22.2.0                                                  03/24/2020  19:38:01  PAGE 76


  C:771FH         LINE#         4964
  C:771FH         LINE#         4965
  C:771FH         LINE#         4967
  C:771FH         LINE#         4968
  C:771FH         LINE#         4969
  C:771FH         LINE#         4970
  C:771FH         LINE#         4972
  C:7724H         LINE#         4973
  C:7726H         LINE#         4974
  C:7728H         LINE#         4975
  C:7728H         LINE#         4976
  C:7728H         LINE#         4978
  C:772EH         LINE#         4979
  -------         ENDPROC       CANRXDA
  -------         PROC          CANRXDB
  -------         DO            
  D:000EH         SYMBOL        i
  D:000EH         SYMBOL        dlc
  D:0049H         SYMBOL        length
  D:000FH         SYMBOL        fgEndFrame
  D:004AH         SYMBOL        p
  -------         ENDDO         
  C:7731H         LINE#         4985
  C:7736H         LINE#         4993
  C:774BH         LINE#         4994
  C:774BH         LINE#         4995
  C:774DH         LINE#         4996
  C:7754H         LINE#         4998
  C:7759H         LINE#         4999
  C:7759H         LINE#         5000
  C:775BH         LINE#         5001
  C:7761H         LINE#         5002
  C:7765H         LINE#         5003
  C:776EH         LINE#         5004
  C:7771H         LINE#         5005
  C:7773H         LINE#         5007
  C:7773H         LINE#         5008
  C:777DH         LINE#         5009
  C:777DH         LINE#         5010
  C:7783H         LINE#         5011
  C:7794H         LINE#         5012
  C:7796H         LINE#         5014
  C:7796H         LINE#         5015
  C:7799H         LINE#         5016
  C:779BH         LINE#         5017
  C:779BH         LINE#         5019
  C:77A1H         LINE#         5032
  C:77A3H         LINE#         5033
  C:77A3H         LINE#         5035
  C:77ABH         LINE#         5036
  C:77ABH         LINE#         5037
  C:77C0H         LINE#         5038
  C:77CAH         LINE#         5039
  C:77D2H         LINE#         5040
  C:77D4H         LINE#         5041
  C:77D7H         LINE#         5043
  C:77EDH         LINE#         5044
BL51 BANKED LINKER/LOCATER V6.22.2.0                                                  03/24/2020  19:38:01  PAGE 77


  C:77EDH         LINE#         5045
  C:7806H         LINE#         5047
  C:7819H         LINE#         5048
  C:7819H         LINE#         5049
  C:781BH         LINE#         5050
  C:7831H         LINE#         5051
  C:7831H         LINE#         5052
  C:7831H         LINE#         5053
  C:7841H         LINE#         5054
  C:7841H         LINE#         5055
  C:7844H         LINE#         5056
  C:7844H         LINE#         5057
  C:7846H         LINE#         5059
  C:7846H         LINE#         5060
  C:784EH         LINE#         5061
  C:784EH         LINE#         5062
  C:7851H         LINE#         5063
  C:7851H         LINE#         5065
  C:7859H         LINE#         5066
  C:7859H         LINE#         5067
  C:785CH         LINE#         5068
  C:785CH         LINE#         5070
  C:785EH         LINE#         5072
  C:785EH         LINE#         5073
  C:7866H         LINE#         5074
  C:7866H         LINE#         5075
  C:7869H         LINE#         5076
  C:7869H         LINE#         5077
  C:786BH         LINE#         5079
  C:786BH         LINE#         5080
  C:7873H         LINE#         5081
  C:7873H         LINE#         5082
  C:7876H         LINE#         5083
  C:7876H         LINE#         5084
  C:7878H         LINE#         5086
  C:7878H         LINE#         5087
  C:7880H         LINE#         5088
  C:7880H         LINE#         5089
  C:7883H         LINE#         5090
  C:7883H         LINE#         5091
  C:7883H         LINE#         5093
  C:7883H         LINE#         5094
  C:7883H         LINE#         5095
  C:7883H         LINE#         5096
  C:7883H         LINE#         5098
  C:7888H         LINE#         5099
  C:788AH         LINE#         5100
  C:788CH         LINE#         5101
  C:788CH         LINE#         5102
  C:788CH         LINE#         5104
  C:7892H         LINE#         5105
  -------         ENDPROC       CANRXDB
  -------         PROC          CANTXDA
  -------         DO            
  D:000FH         SYMBOL        i
  -------         ENDDO         
  C:89A4H         LINE#         5111
BL51 BANKED LINKER/LOCATER V6.22.2.0                                                  03/24/2020  19:38:01  PAGE 78


  C:89A9H         LINE#         5115
  C:89AFH         LINE#         5116
  C:89AFH         LINE#         5117
  C:89BBH         LINE#         5118
  C:89BBH         LINE#         5119
  C:89CFH         LINE#         5120
  C:89D7H         LINE#         5121
  C:89DAH         LINE#         5122
  C:89E0H         LINE#         5123
  C:89E2H         LINE#         5124
  C:89E4H         LINE#         5126
  C:89E4H         LINE#         5127
  C:89E7H         LINE#         5128
  C:89EAH         LINE#         5129
  C:89EAH         LINE#         5130
  -------         ENDPROC       CANTXDA
  -------         PROC          CANTXDB
  -------         DO            
  D:000FH         SYMBOL        i
  -------         ENDDO         
  C:89EDH         LINE#         5136
  C:89F2H         LINE#         5140
  C:89F8H         LINE#         5141
  C:89F8H         LINE#         5142
  C:8A04H         LINE#         5143
  C:8A04H         LINE#         5144
  C:8A18H         LINE#         5145
  C:8A20H         LINE#         5146
  C:8A23H         LINE#         5147
  C:8A29H         LINE#         5148
  C:8A2BH         LINE#         5149
  C:8A2DH         LINE#         5151
  C:8A2DH         LINE#         5152
  C:8A30H         LINE#         5153
  C:8A33H         LINE#         5154
  C:8A33H         LINE#         5155
  -------         ENDPROC       CANTXDB
  -------         PROC          RSMANAGEA
  -------         DO            
  D:000FH         SYMBOL        i
  D:000EH         SYMBOL        sum
  D:000CH         SYMBOL        p
  -------         ENDDO         
  C:6641H         LINE#         5161
  C:6646H         LINE#         5167
  C:664CH         LINE#         5169
  C:6650H         LINE#         5171
  C:667AH         LINE#         5172
  C:667AH         LINE#         5173
  C:667AH         LINE#         5174
  C:6682H         LINE#         5175
  C:6682H         LINE#         5176
  C:6688H         LINE#         5177
  C:668AH         LINE#         5179
  C:668AH         LINE#         5180
  C:6690H         LINE#         5181
  C:6690H         LINE#         5183
BL51 BANKED LINKER/LOCATER V6.22.2.0                                                  03/24/2020  19:38:01  PAGE 79


  C:669CH         LINE#         5184
  C:669CH         LINE#         5185
  C:66A8H         LINE#         5186
  C:66ADH         LINE#         5187
  C:66B5H         LINE#         5188
  C:66B8H         LINE#         5189
  C:66B8H         LINE#         5190
  C:66B8H         LINE#         5191
  C:66B8H         LINE#         5193
  C:66BAH         LINE#         5195
  C:66BAH         LINE#         5196
  C:66C2H         LINE#         5197
  C:66C2H         LINE#         5198
  C:66C8H         LINE#         5199
  C:66CAH         LINE#         5201
  C:66CAH         LINE#         5202
  C:66D0H         LINE#         5203
  C:66D0H         LINE#         5205
  C:66DCH         LINE#         5206
  C:66DCH         LINE#         5207
  C:66E8H         LINE#         5208
  C:66EDH         LINE#         5209
  C:66F5H         LINE#         5210
  C:66F8H         LINE#         5211
  C:66FEH         LINE#         5212
  C:6700H         LINE#         5213
  C:6703H         LINE#         5215
  C:6706H         LINE#         5217
  C:6706H         LINE#         5218
  C:670CH         LINE#         5220
  C:6718H         LINE#         5221
  C:6718H         LINE#         5222
  C:6724H         LINE#         5223
  C:6729H         LINE#         5224
  C:6731H         LINE#         5225
  C:6734H         LINE#         5226
  C:673AH         LINE#         5227
  C:673CH         LINE#         5228
  C:673FH         LINE#         5229
  C:6742H         LINE#         5231
  C:6742H         LINE#         5232
  C:6748H         LINE#         5234
  C:6754H         LINE#         5235
  C:6754H         LINE#         5236
  C:6760H         LINE#         5237
  C:6765H         LINE#         5238
  C:676DH         LINE#         5239
  C:6770H         LINE#         5240
  C:6776H         LINE#         5241
  C:6778H         LINE#         5242
  C:677BH         LINE#         5243
  C:677EH         LINE#         5245
  C:677EH         LINE#         5246
  C:6784H         LINE#         5248
  C:6790H         LINE#         5249
  C:6790H         LINE#         5250
  C:679CH         LINE#         5251
BL51 BANKED LINKER/LOCATER V6.22.2.0                                                  03/24/2020  19:38:01  PAGE 80


  C:67A1H         LINE#         5252
  C:67A9H         LINE#         5253
  C:67ACH         LINE#         5254
  C:67B2H         LINE#         5255
  C:67B4H         LINE#         5256
  C:67B7H         LINE#         5257
  C:67BAH         LINE#         5259
  C:67BAH         LINE#         5260
  C:67BCH         LINE#         5262
  C:67C3H         LINE#         5263
  C:67C8H         LINE#         5264
  C:67CFH         LINE#         5265
  C:67D4H         LINE#         5266
  C:67DBH         LINE#         5267
  C:67DEH         LINE#         5268
  C:67E3H         LINE#         5270
  C:67E9H         LINE#         5271
  C:67E9H         LINE#         5272
  C:67FBH         LINE#         5273
  C:67FEH         LINE#         5274
  C:6803H         LINE#         5275
  C:6809H         LINE#         5276
  C:680CH         LINE#         5277
  C:6811H         LINE#         5279
  C:681EH         LINE#         5281
  C:6820H         LINE#         5282
  C:682BH         LINE#         5283
  C:682BH         LINE#         5284
  C:682EH         LINE#         5285
  C:682EH         LINE#         5286
  C:6830H         LINE#         5288
  C:6830H         LINE#         5289
  C:6837H         LINE#         5290
  C:683AH         LINE#         5291
  C:683FH         LINE#         5292
  C:6846H         LINE#         5293
  C:6849H         LINE#         5294
  C:684EH         LINE#         5295
  C:684EH         LINE#         5297
  C:6854H         LINE#         5299
  C:685AH         LINE#         5300
  C:685CH         LINE#         5301
  C:685EH         LINE#         5302
  C:685EH         LINE#         5304
  C:685EH         LINE#         5305
  C:685EH         LINE#         5306
  C:685EH         LINE#         5307
  -------         ENDPROC       RSMANAGEA
  -------         PROC          RSMANAGEB
  -------         DO            
  D:000FH         SYMBOL        i
  D:000EH         SYMBOL        sum
  D:000CH         SYMBOL        p
  -------         ENDDO         
  C:6861H         LINE#         5313
  C:6866H         LINE#         5319
  C:686CH         LINE#         5321
BL51 BANKED LINKER/LOCATER V6.22.2.0                                                  03/24/2020  19:38:01  PAGE 81


  C:6870H         LINE#         5323
  C:689AH         LINE#         5324
  C:689AH         LINE#         5325
  C:689AH         LINE#         5326
  C:68A2H         LINE#         5327
  C:68A2H         LINE#         5328
  C:68A8H         LINE#         5329
  C:68AAH         LINE#         5331
  C:68AAH         LINE#         5332
  C:68B0H         LINE#         5333
  C:68B0H         LINE#         5335
  C:68BCH         LINE#         5336
  C:68BCH         LINE#         5337
  C:68C8H         LINE#         5338
  C:68CDH         LINE#         5339
  C:68D5H         LINE#         5340
  C:68D8H         LINE#         5341
  C:68D8H         LINE#         5342
  C:68D8H         LINE#         5343
  C:68D8H         LINE#         5345
  C:68DAH         LINE#         5347
  C:68DAH         LINE#         5348
  C:68E2H         LINE#         5349
  C:68E2H         LINE#         5350
  C:68E8H         LINE#         5351
  C:68EAH         LINE#         5353
  C:68EAH         LINE#         5354
  C:68F0H         LINE#         5355
  C:68F0H         LINE#         5357
  C:68FCH         LINE#         5358
  C:68FCH         LINE#         5359
  C:6908H         LINE#         5360
  C:690DH         LINE#         5361
  C:6915H         LINE#         5362
  C:6918H         LINE#         5363
  C:691EH         LINE#         5364
  C:6920H         LINE#         5365
  C:6923H         LINE#         5367
  C:6926H         LINE#         5369
  C:6926H         LINE#         5370
  C:692CH         LINE#         5372
  C:6938H         LINE#         5373
  C:6938H         LINE#         5374
  C:6944H         LINE#         5375
  C:6949H         LINE#         5376
  C:6951H         LINE#         5377
  C:6954H         LINE#         5378
  C:695AH         LINE#         5379
  C:695CH         LINE#         5380
  C:695FH         LINE#         5381
  C:6962H         LINE#         5383
  C:6962H         LINE#         5384
  C:6968H         LINE#         5386
  C:6974H         LINE#         5387
  C:6974H         LINE#         5388
  C:6980H         LINE#         5389
  C:6985H         LINE#         5390
BL51 BANKED LINKER/LOCATER V6.22.2.0                                                  03/24/2020  19:38:01  PAGE 82


  C:698DH         LINE#         5391
  C:6990H         LINE#         5392
  C:6996H         LINE#         5393
  C:6998H         LINE#         5394
  C:699BH         LINE#         5395
  C:699EH         LINE#         5397
  C:699EH         LINE#         5398
  C:69A4H         LINE#         5400
  C:69B0H         LINE#         5401
  C:69B0H         LINE#         5402
  C:69BCH         LINE#         5403
  C:69C1H         LINE#         5404
  C:69C9H         LINE#         5405
  C:69CCH         LINE#         5406
  C:69D2H         LINE#         5407
  C:69D4H         LINE#         5408
  C:69D7H         LINE#         5409
  C:69DAH         LINE#         5411
  C:69DAH         LINE#         5412
  C:69DCH         LINE#         5414
  C:69E3H         LINE#         5415
  C:69E8H         LINE#         5416
  C:69EFH         LINE#         5417
  C:69F4H         LINE#         5418
  C:69FBH         LINE#         5419
  C:69FEH         LINE#         5420
  C:6A03H         LINE#         5422
  C:6A09H         LINE#         5423
  C:6A09H         LINE#         5424
  C:6A1BH         LINE#         5425
  C:6A1EH         LINE#         5426
  C:6A23H         LINE#         5427
  C:6A29H         LINE#         5428
  C:6A2CH         LINE#         5429
  C:6A31H         LINE#         5431
  C:6A3EH         LINE#         5433
  C:6A40H         LINE#         5434
  C:6A4BH         LINE#         5435
  C:6A4BH         LINE#         5436
  C:6A4EH         LINE#         5437
  C:6A4EH         LINE#         5438
  C:6A50H         LINE#         5440
  C:6A50H         LINE#         5441
  C:6A57H         LINE#         5442
  C:6A5AH         LINE#         5443
  C:6A5FH         LINE#         5444
  C:6A66H         LINE#         5445
  C:6A69H         LINE#         5446
  C:6A6EH         LINE#         5447
  C:6A6EH         LINE#         5449
  C:6A74H         LINE#         5451
  C:6A7AH         LINE#         5452
  C:6A7CH         LINE#         5453
  C:6A7EH         LINE#         5454
  C:6A7EH         LINE#         5456
  C:6A7EH         LINE#         5457
  C:6A7EH         LINE#         5458
BL51 BANKED LINKER/LOCATER V6.22.2.0                                                  03/24/2020  19:38:01  PAGE 83


  C:6A7EH         LINE#         5459
  -------         ENDPROC       RSMANAGEB
  -------         PROC          ONOFFMANAGEA
  -------         DO            
  D:0082H         SYMBOL        p
  -------         ENDDO         
  C:82E7H         LINE#         5465
  C:82ECH         LINE#         5469
  C:8306H         LINE#         5470
  C:8306H         LINE#         5471
  C:8309H         LINE#         5473
  C:830CH         LINE#         5474
  C:830DH         LINE#         5475
  C:8310H         LINE#         5476
  C:8311H         LINE#         5477
  C:8314H         LINE#         5478
  C:8315H         LINE#         5479
  C:8318H         LINE#         5480
  C:8319H         LINE#         5481
  C:831CH         LINE#         5482
  C:831DH         LINE#         5483
  C:8320H         LINE#         5485
  C:8326H         LINE#         5486
  C:8328H         LINE#         5487
  C:832AH         LINE#         5489
  C:8341H         LINE#         5490
  C:8354H         LINE#         5492
  C:835AH         LINE#         5493
  C:8364H         LINE#         5494
  C:8364H         LINE#         5495
  C:8366H         LINE#         5496
  C:8366H         LINE#         5497
  C:8366H         LINE#         5498
  -------         ENDPROC       ONOFFMANAGEA
  -------         PROC          ONOFFMANAGEB
  -------         DO            
  D:0082H         SYMBOL        p
  -------         ENDDO         
  C:8369H         LINE#         5504
  C:836EH         LINE#         5508
  C:8388H         LINE#         5509
  C:8388H         LINE#         5510
  C:838BH         LINE#         5512
  C:838EH         LINE#         5513
  C:838FH         LINE#         5514
  C:8392H         LINE#         5515
  C:8393H         LINE#         5516
  C:8396H         LINE#         5517
  C:8397H         LINE#         5518
  C:839AH         LINE#         5519
  C:839BH         LINE#         5520
  C:839EH         LINE#         5521
  C:839FH         LINE#         5522
  C:83A2H         LINE#         5524
  C:83A8H         LINE#         5525
  C:83AAH         LINE#         5526
  C:83ACH         LINE#         5528
BL51 BANKED LINKER/LOCATER V6.22.2.0                                                  03/24/2020  19:38:01  PAGE 84


  C:83C3H         LINE#         5529
  C:83D6H         LINE#         5531
  C:83DCH         LINE#         5532
  C:83E6H         LINE#         5533
  C:83E6H         LINE#         5534
  C:83E8H         LINE#         5535
  C:83E8H         LINE#         5536
  C:83E8H         LINE#         5537
  -------         ENDPROC       ONOFFMANAGEB
  -------         PROC          DATAMANAGEA
  -------         DO            
  D:0082H         SYMBOL        p
  -------         ENDDO         
  C:86A6H         LINE#         5543
  C:86A6H         LINE#         5548
  C:86B4H         LINE#         5549
  C:86B4H         LINE#         5551
  C:86B7H         LINE#         5553
  C:86BAH         LINE#         5554
  C:86BBH         LINE#         5555
  C:86BEH         LINE#         5556
  C:86BFH         LINE#         5557
  C:86C2H         LINE#         5558
  C:86C3H         LINE#         5559
  C:86C6H         LINE#         5560
  C:86C7H         LINE#         5561
  C:86CAH         LINE#         5562
  C:86CBH         LINE#         5563
  C:86CEH         LINE#         5565
  C:86D4H         LINE#         5566
  C:86D6H         LINE#         5567
  C:86D8H         LINE#         5569
  C:86E0H         LINE#         5570
  C:86E8H         LINE#         5571
  C:86F0H         LINE#         5572
  C:86F8H         LINE#         5574
  C:86FEH         LINE#         5575
  C:86FEH         LINE#         5576
  -------         ENDPROC       DATAMANAGEA
  -------         PROC          DATAMANAGEB
  -------         DO            
  D:0082H         SYMBOL        p
  -------         ENDDO         
  C:86FFH         LINE#         5582
  C:86FFH         LINE#         5587
  C:870DH         LINE#         5588
  C:870DH         LINE#         5590
  C:8710H         LINE#         5592
  C:8713H         LINE#         5593
  C:8714H         LINE#         5594
  C:8717H         LINE#         5595
  C:8718H         LINE#         5596
  C:871BH         LINE#         5597
  C:871CH         LINE#         5598
  C:871FH         LINE#         5599
  C:8720H         LINE#         5600
  C:8723H         LINE#         5601
BL51 BANKED LINKER/LOCATER V6.22.2.0                                                  03/24/2020  19:38:01  PAGE 85


  C:8724H         LINE#         5602
  C:8727H         LINE#         5604
  C:872DH         LINE#         5605
  C:872FH         LINE#         5606
  C:8731H         LINE#         5608
  C:8739H         LINE#         5609
  C:8741H         LINE#         5610
  C:8749H         LINE#         5611
  C:8751H         LINE#         5613
  C:8757H         LINE#         5614
  C:8757H         LINE#         5615
  -------         ENDPROC       DATAMANAGEB
  -------         PROC          RAMMANAGEA
  -------         DO            
  D:000FH         SYMBOL        i
  D:0082H         SYMBOL        p
  -------         ENDDO         
  C:8862H         LINE#         5621
  C:8867H         LINE#         5626
  C:886AH         LINE#         5628
  C:886DH         LINE#         5629
  C:886EH         LINE#         5630
  C:8871H         LINE#         5631
  C:8872H         LINE#         5632
  C:8875H         LINE#         5633
  C:8876H         LINE#         5634
  C:8879H         LINE#         5635
  C:887AH         LINE#         5636
  C:887DH         LINE#         5637
  C:887EH         LINE#         5638
  C:8881H         LINE#         5640
  C:8887H         LINE#         5641
  C:8889H         LINE#         5642
  C:888BH         LINE#         5644
  C:8897H         LINE#         5645
  C:8897H         LINE#         5646
  C:88A9H         LINE#         5647
  C:88ACH         LINE#         5649
  C:88B2H         LINE#         5650
  -------         ENDPROC       RAMMANAGEA
  -------         PROC          RAMMANAGEB
  -------         DO            
  D:000FH         SYMBOL        i
  D:0082H         SYMBOL        p
  -------         ENDDO         
  C:88B5H         LINE#         5656
  C:88BAH         LINE#         5661
  C:88BDH         LINE#         5663
  C:88C0H         LINE#         5664
  C:88C1H         LINE#         5665
  C:88C4H         LINE#         5666
  C:88C5H         LINE#         5667
  C:88C8H         LINE#         5668
  C:88C9H         LINE#         5669
  C:88CCH         LINE#         5670
  C:88CDH         LINE#         5671
  C:88D0H         LINE#         5672
BL51 BANKED LINKER/LOCATER V6.22.2.0                                                  03/24/2020  19:38:01  PAGE 86


  C:88D1H         LINE#         5673
  C:88D4H         LINE#         5675
  C:88DAH         LINE#         5676
  C:88DCH         LINE#         5677
  C:88DEH         LINE#         5679
  C:88EAH         LINE#         5680
  C:88EAH         LINE#         5681
  C:88FCH         LINE#         5682
  C:88FFH         LINE#         5684
  C:8905H         LINE#         5685
  -------         ENDPROC       RAMMANAGEB
  -------         PROC          IMPORTANTMANAGEA
  -------         DO            
  D:000FH         SYMBOL        i
  D:0082H         SYMBOL        p
  -------         ENDDO         
  C:8758H         LINE#         5691
  C:875DH         LINE#         5696
  C:8760H         LINE#         5698
  C:8763H         LINE#         5699
  C:8764H         LINE#         5700
  C:8767H         LINE#         5701
  C:8768H         LINE#         5702
  C:876BH         LINE#         5703
  C:876CH         LINE#         5704
  C:876FH         LINE#         5705
  C:8770H         LINE#         5706
  C:8773H         LINE#         5707
  C:8774H         LINE#         5708
  C:8777H         LINE#         5710
  C:877DH         LINE#         5711
  C:877FH         LINE#         5712
  C:8781H         LINE#         5714
  C:878DH         LINE#         5715
  C:878DH         LINE#         5716
  C:87A5H         LINE#         5717
  C:87A8H         LINE#         5718
  C:87AEH         LINE#         5719
  -------         ENDPROC       IMPORTANTMANAGEA
  -------         PROC          IMPORTANTMANAGEB
  -------         DO            
  D:000FH         SYMBOL        i
  D:0082H         SYMBOL        p
  -------         ENDDO         
  C:87B1H         LINE#         5725
  C:87B6H         LINE#         5730
  C:87B9H         LINE#         5732
  C:87BCH         LINE#         5733
  C:87BDH         LINE#         5734
  C:87C0H         LINE#         5735
  C:87C1H         LINE#         5736
  C:87C4H         LINE#         5737
  C:87C5H         LINE#         5738
  C:87C8H         LINE#         5739
  C:87C9H         LINE#         5740
  C:87CCH         LINE#         5741
  C:87CDH         LINE#         5742
BL51 BANKED LINKER/LOCATER V6.22.2.0                                                  03/24/2020  19:38:01  PAGE 87


  C:87D0H         LINE#         5744
  C:87D6H         LINE#         5745
  C:87D8H         LINE#         5746
  C:87DAH         LINE#         5748
  C:87E6H         LINE#         5749
  C:87E6H         LINE#         5750
  C:87FEH         LINE#         5751
  C:8801H         LINE#         5752
  C:8807H         LINE#         5753
  -------         ENDPROC       IMPORTANTMANAGEB
  -------         PROC          TIMEBCA
  C:8468H         LINE#         5759
  C:846DH         LINE#         5761
  C:84DBH         LINE#         5762
  -------         ENDPROC       TIMEBCA
  -------         PROC          TIMEBCB
  C:84DEH         LINE#         5768
  C:84E3H         LINE#         5770
  C:8551H         LINE#         5771
  -------         ENDPROC       TIMEBCB
  -------         PROC          TIMER_ISR
  C:8CA5H         LINE#         5777
  C:8CA5H         LINE#         5779
  C:8CA7H         LINE#         5780
  C:8CAAH         LINE#         5781
  C:8CADH         LINE#         5782
  C:8CAFH         LINE#         5784
  C:8CB1H         LINE#         5785
  -------         ENDPROC       TIMER_ISR
  -------         PROC          CANINFOA
  -------         DO            
  D:0006H         SYMBOL        i
  -------         ENDDO         
  C:8C2FH         LINE#         5791
  C:8C2FH         LINE#         5792
  C:8C2FH         LINE#         5795
  C:8C32H         LINE#         5796
  C:8C34H         LINE#         5797
  C:8C36H         LINE#         5798
  C:8C3AH         LINE#         5799
  C:8C3CH         LINE#         5801
  C:8C3CH         LINE#         5802
  C:8C3CH         LINE#         5803
  C:8C4AH         LINE#         5804
  C:8C4AH         LINE#         5805
  -------         ENDPROC       CANINFOA
  C:8BECH         SYMBOL        L?1290
  -------         PROC          L?1289
  -------         ENDPROC       L?1289
  C:8BECH         SYMBOL        L?1290
  -------         PROC          CANINFOB
  -------         DO            
  D:0006H         SYMBOL        i
  -------         ENDDO         
  C:8BF5H         LINE#         5811
  C:8BF5H         LINE#         5812
  C:8BF5H         LINE#         5815
BL51 BANKED LINKER/LOCATER V6.22.2.0                                                  03/24/2020  19:38:01  PAGE 88


  C:8BF8H         LINE#         5816
  C:8BFAH         LINE#         5817
  C:8BFCH         LINE#         5818
  C:8C00H         LINE#         5819
  C:8C02H         LINE#         5821
  C:8C02H         LINE#         5822
  C:8C02H         LINE#         5823
  C:8C10H         LINE#         5824
  C:8C10H         LINE#         5825
  -------         ENDPROC       CANINFOB
  C:7D3BH         SYMBOL        L?1292
  -------         PROC          L?1291
  -------         ENDPROC       L?1291
  C:7D3BH         SYMBOL        L?1292
  -------         PROC          _SEPCURRENTSTATECAL
  D:0006H         SYMBOL        val
  -------         DO            
  X:89C5H         SYMBOL        valTemp
  D:003FH         SYMBOL        stateVal
  -------         ENDDO         
  C:7D40H         LINE#         5831
  C:7D40H         LINE#         5832
  C:7D40H         LINE#         5836
  C:7D59H         LINE#         5837
  C:7D5CH         LINE#         5839
  C:7D6FH         LINE#         5840
  C:7D6FH         LINE#         5841
  C:7D72H         LINE#         5842
  C:7D72H         LINE#         5844
  C:7D9AH         LINE#         5845
  C:7D9AH         LINE#         5846
  C:7D9DH         LINE#         5847
  C:7D9DH         LINE#         5849
  C:7DC6H         LINE#         5850
  C:7DC6H         LINE#         5851
  C:7DC9H         LINE#         5852
  C:7DC9H         LINE#         5854
  C:7DF2H         LINE#         5855
  C:7DF2H         LINE#         5856
  C:7DF5H         LINE#         5857
  C:7DF5H         LINE#         5859
  C:7E1EH         LINE#         5860
  C:7E1EH         LINE#         5861
  C:7E21H         LINE#         5862
  C:7E21H         LINE#         5864
  C:7E23H         LINE#         5865
  -------         ENDPROC       _SEPCURRENTSTATECAL
  -------         PROC          IMPORTANTDATARX
  -------         DO            
  D:0002H         SYMBOL        i
  D:003EH         SYMBOL        j
  -------         ENDDO         
  C:8638H         LINE#         5871
  C:8638H         LINE#         5872
  C:8638H         LINE#         5876
  C:863DH         LINE#         5877
  C:863DH         LINE#         5878
BL51 BANKED LINKER/LOCATER V6.22.2.0                                                  03/24/2020  19:38:01  PAGE 89


  C:864BH         LINE#         5879
  C:864DH         LINE#         5880
  C:8658H         LINE#         5881
  C:8658H         LINE#         5882
  C:865BH         LINE#         5883
  C:865BH         LINE#         5885
  C:865EH         LINE#         5886
  C:865EH         LINE#         5887
  C:8660H         LINE#         5888
  C:8667H         LINE#         5889
  C:8672H         LINE#         5891
  C:867AH         LINE#         5892
  C:867AH         LINE#         5893
  C:867DH         LINE#         5894
  C:8680H         LINE#         5895
  C:8680H         LINE#         5897
  C:8688H         LINE#         5898
  C:8688H         LINE#         5899
  C:8688H         LINE#         5900
  C:8688H         LINE#         5901
  C:8699H         LINE#         5903
  C:869FH         LINE#         5904
  C:869FH         LINE#         5905
  C:86A2H         LINE#         5906
  C:86A2H         LINE#         5908
  C:86A5H         LINE#         5909
  -------         ENDPROC       IMPORTANTDATARX
  -------         PROC          IMPORTDATAFLUSH
  -------         DO            
  D:0005H         SYMBOL        i
  D:0006H         SYMBOL        sum
  D:0007H         SYMBOL        fgZero
  -------         ENDDO         
  C:385BH         LINE#         5916
  C:385BH         LINE#         5917
  C:385BH         LINE#         5922
  C:385DH         LINE#         5924
  C:385FH         LINE#         5925
  C:386AH         LINE#         5926
  C:386AH         LINE#         5927
  C:3877H         LINE#         5928
  C:3884H         LINE#         5929
  C:3884H         LINE#         5930
  C:3886H         LINE#         5931
  C:3886H         LINE#         5932
  C:3889H         LINE#         5934
  C:389BH         LINE#         5935
  C:389BH         LINE#         5936
  C:38A1H         LINE#         5938
  C:38AEH         LINE#         5939
  C:38AEH         LINE#         5940
  C:38B0H         LINE#         5941
  C:38B0H         LINE#         5942
  C:38B0H         LINE#         5943
  C:38B2H         LINE#         5945
  C:38B2H         LINE#         5946
  C:38B5H         LINE#         5947
BL51 BANKED LINKER/LOCATER V6.22.2.0                                                  03/24/2020  19:38:01  PAGE 90


  C:38B9H         LINE#         5948
  C:38BDH         LINE#         5949
  C:38BDH         LINE#         5951
  C:38CAH         LINE#         5952
  C:38CAH         LINE#         5953
  C:38CCH         LINE#         5954
  C:38CCH         LINE#         5955
  C:38CCH         LINE#         5956
  C:38CEH         LINE#         5958
  C:38CEH         LINE#         5959
  C:38D1H         LINE#         5960
  C:38D5H         LINE#         5961
  C:38D9H         LINE#         5962
  C:38D9H         LINE#         5964
  C:38E6H         LINE#         5965
  C:38E6H         LINE#         5966
  C:38E8H         LINE#         5967
  C:38E8H         LINE#         5968
  C:38E8H         LINE#         5969
  C:38EAH         LINE#         5971
  C:38EAH         LINE#         5972
  C:38EDH         LINE#         5973
  C:38F1H         LINE#         5974
  C:38F5H         LINE#         5975
  C:38F5H         LINE#         5977
  C:38FDH         LINE#         5978
  C:3901H         LINE#         5979
  C:3905H         LINE#         5981
  C:390DH         LINE#         5982
  C:3911H         LINE#         5983
  C:3915H         LINE#         5985
  C:391EH         LINE#         5986
  C:3927H         LINE#         5988
  C:392FH         LINE#         5989
  C:3933H         LINE#         5990
  C:3937H         LINE#         5992
  C:393FH         LINE#         5993
  C:3943H         LINE#         5994
  C:3947H         LINE#         5996
  C:3950H         LINE#         5997
  C:395CH         LINE#         5998
  C:3965H         LINE#         5999
  C:3971H         LINE#         6001
  C:399EH         LINE#         6002
  C:39CBH         LINE#         6003
  C:39F8H         LINE#         6005
  C:3A04H         LINE#         6007
  C:3A28H         LINE#         6008
  C:3A2BH         LINE#         6009
  C:3A2EH         LINE#         6010
  C:3A30H         LINE#         6011
  C:3A32H         LINE#         6012
  C:3A34H         LINE#         6014
  C:3A3CH         LINE#         6015
  C:3A40H         LINE#         6016
  C:3A44H         LINE#         6018
  C:3A59H         LINE#         6020
BL51 BANKED LINKER/LOCATER V6.22.2.0                                                  03/24/2020  19:38:01  PAGE 91


  C:3A6CH         LINE#         6021
  C:3A7FH         LINE#         6022
  C:3A92H         LINE#         6024
  C:3AA5H         LINE#         6025
  C:3AB8H         LINE#         6026
  C:3ACBH         LINE#         6028
  C:3AD3H         LINE#         6029
  C:3AD7H         LINE#         6030
  C:3ADBH         LINE#         6032
  C:3AFCH         LINE#         6033
  C:3B1FH         LINE#         6034
  C:3B42H         LINE#         6036
  C:3B65H         LINE#         6037
  C:3B88H         LINE#         6038
  C:3BABH         LINE#         6040
  C:3BCEH         LINE#         6041
  C:3BF1H         LINE#         6042
  C:3C14H         LINE#         6044
  C:3C37H         LINE#         6045
  C:3C5AH         LINE#         6046
  C:3C7DH         LINE#         6048
  C:3CA0H         LINE#         6049
  C:3CC3H         LINE#         6050
  C:3CE6H         LINE#         6052
  C:3D09H         LINE#         6053
  C:3D2CH         LINE#         6054
  C:3D4FH         LINE#         6056
  C:3D72H         LINE#         6057
  C:3D95H         LINE#         6058
  C:3DB8H         LINE#         6060
  C:3DC4H         LINE#         6061
  C:3DC4H         LINE#         6062
  C:3DDCH         LINE#         6063
  C:3DDFH         LINE#         6064
  C:3DDFH         LINE#         6066
  C:3DDFH         LINE#         6067
  C:3DE4H         LINE#         6068
  C:3DE4H         LINE#         6069
  -------         ENDPROC       IMPORTDATAFLUSH
  -------         PROC          IMPORTANTDATATX
  C:8B0AH         LINE#         6075
  C:8B0AH         LINE#         6076
  C:8B0AH         LINE#         6077
  C:8B10H         LINE#         6078
  C:8B1AH         LINE#         6079
  C:8B1AH         LINE#         6080
  C:8B1CH         LINE#         6082
  C:8B23H         LINE#         6083
  C:8B26H         LINE#         6085
  C:8B34H         LINE#         6086
  C:8B36H         LINE#         6087
  C:8B41H         LINE#         6088
  C:8B41H         LINE#         6089
  C:8B44H         LINE#         6090
  C:8B44H         LINE#         6091
  C:8B44H         LINE#         6092
  -------         ENDPROC       IMPORTANTDATATX
BL51 BANKED LINKER/LOCATER V6.22.2.0                                                  03/24/2020  19:38:01  PAGE 92


  -------         PROC          _IMPORTANTSAVEDATA
  D:003EH         SYMBOL        pRs
  -------         DO            
  D:0007H         SYMBOL        i
  D:0040H         SYMBOL        sum
  D:0007H         SYMBOL        state
  -------         ENDDO         
  C:42AEH         LINE#         6098
  C:42B2H         LINE#         6099
  C:42B2H         LINE#         6104
  C:42B4H         LINE#         6105
  C:42BCH         LINE#         6106
  C:42BCH         LINE#         6107
  C:42BEH         LINE#         6108
  C:42BEH         LINE#         6109
  C:42C6H         LINE#         6110
  C:42C6H         LINE#         6111
  C:42C9H         LINE#         6112
  C:42C9H         LINE#         6113
  C:42D1H         LINE#         6114
  C:42D1H         LINE#         6115
  C:42D4H         LINE#         6116
  C:42D4H         LINE#         6118
  C:42D7H         LINE#         6120
  C:42DFH         LINE#         6121
  C:42E4H         LINE#         6122
  C:42ECH         LINE#         6124
  C:42F7H         LINE#         6125
  C:42FCH         LINE#         6126
  C:4304H         LINE#         6127
  C:430FH         LINE#         6128
  C:4314H         LINE#         6129
  C:431CH         LINE#         6130
  C:4327H         LINE#         6131
  C:432CH         LINE#         6132
  C:4334H         LINE#         6133
  C:433FH         LINE#         6134
  C:4344H         LINE#         6135
  C:434CH         LINE#         6137
  C:4371H         LINE#         6138
  C:4376H         LINE#         6139
  C:437EH         LINE#         6140
  C:43AEH         LINE#         6141
  C:43B3H         LINE#         6142
  C:43BBH         LINE#         6144
  C:43C2H         LINE#         6145
  C:43C7H         LINE#         6146
  C:43CFH         LINE#         6147
  C:43DAH         LINE#         6148
  C:43DFH         LINE#         6149
  C:43E7H         LINE#         6151
  C:43F7H         LINE#         6152
  C:43FCH         LINE#         6153
  C:4404H         LINE#         6154
  C:440BH         LINE#         6155
  C:4410H         LINE#         6156
  C:4418H         LINE#         6158
BL51 BANKED LINKER/LOCATER V6.22.2.0                                                  03/24/2020  19:38:01  PAGE 93


  C:4428H         LINE#         6159
  C:442DH         LINE#         6160
  C:4435H         LINE#         6161
  C:443CH         LINE#         6162
  C:4441H         LINE#         6163
  C:4449H         LINE#         6165
  C:4459H         LINE#         6166
  C:445EH         LINE#         6167
  C:4466H         LINE#         6168
  C:446DH         LINE#         6169
  C:4472H         LINE#         6170
  C:447AH         LINE#         6172
  C:4485H         LINE#         6173
  C:448AH         LINE#         6174
  C:4492H         LINE#         6176
  C:44BAH         LINE#         6177
  C:44BFH         LINE#         6178
  C:44C7H         LINE#         6179
  C:44CEH         LINE#         6180
  C:44D3H         LINE#         6181
  C:44DBH         LINE#         6182
  C:4503H         LINE#         6183
  C:4508H         LINE#         6184
  C:4510H         LINE#         6185
  C:4517H         LINE#         6186
  C:451CH         LINE#         6187
  C:4524H         LINE#         6189
  C:454CH         LINE#         6190
  C:4551H         LINE#         6191
  C:4559H         LINE#         6192
  C:4560H         LINE#         6193
  C:4565H         LINE#         6194
  C:456DH         LINE#         6195
  C:4595H         LINE#         6196
  C:459AH         LINE#         6197
  C:45A2H         LINE#         6198
  C:45A9H         LINE#         6199
  C:45AEH         LINE#         6200
  C:45B6H         LINE#         6202
  C:45DEH         LINE#         6203
  C:45E3H         LINE#         6204
  C:45EBH         LINE#         6205
  C:45F2H         LINE#         6206
  C:45F7H         LINE#         6207
  C:45FFH         LINE#         6209
  C:4625H         LINE#         6210
  C:462AH         LINE#         6211
  C:4632H         LINE#         6212
  C:4658H         LINE#         6213
  C:465DH         LINE#         6214
  C:4665H         LINE#         6215
  C:468BH         LINE#         6216
  C:4690H         LINE#         6217
  C:4698H         LINE#         6218
  C:46BEH         LINE#         6219
  C:46C3H         LINE#         6220
  C:46CBH         LINE#         6222
BL51 BANKED LINKER/LOCATER V6.22.2.0                                                  03/24/2020  19:38:01  PAGE 94


  C:46D3H         LINE#         6223
  C:46D8H         LINE#         6224
  C:46E0H         LINE#         6225
  C:46E8H         LINE#         6226
  C:46EDH         LINE#         6227
  C:46F5H         LINE#         6228
  C:46FDH         LINE#         6229
  C:4702H         LINE#         6230
  C:470AH         LINE#         6231
  C:4712H         LINE#         6232
  C:4717H         LINE#         6233
  C:471FH         LINE#         6235
  C:472BH         LINE#         6236
  C:472BH         LINE#         6237
  C:473DH         LINE#         6238
  C:4742H         LINE#         6239
  C:474AH         LINE#         6240
  C:474DH         LINE#         6242
  C:4756H         LINE#         6243
  -------         ENDPROC       _IMPORTANTSAVEDATA
  -------         PROC          UPLOADPARAMANAGE
  -------         DO            
  D:003EH         SYMBOL        dataTemp
  -------         ENDDO         
  C:4757H         LINE#         6249
  C:4757H         LINE#         6250
  C:4757H         LINE#         6253
  C:4762H         LINE#         6254
  C:4762H         LINE#         6255
  C:4765H         LINE#         6256
  C:4776H         LINE#         6258
  C:47A8H         LINE#         6259
  C:47A8H         LINE#         6260
  C:47A8H         LINE#         6261
  C:47ABH         LINE#         6262
  C:47ADH         LINE#         6264
  C:47ADH         LINE#         6265
  C:47B7H         LINE#         6266
  C:47C1H         LINE#         6267
  C:47C4H         LINE#         6268
  C:47C6H         LINE#         6270
  C:47C6H         LINE#         6271
  C:47D0H         LINE#         6272
  C:47DAH         LINE#         6273
  C:47E4H         LINE#         6274
  C:47E5H         LINE#         6276
  C:47E5H         LINE#         6277
  C:4801H         LINE#         6278
  C:4801H         LINE#         6279
  C:4819H         LINE#         6280
  C:4831H         LINE#         6281
  C:4846H         LINE#         6282
  C:4846H         LINE#         6283
  C:4849H         LINE#         6285
  C:4849H         LINE#         6286
  C:4865H         LINE#         6287
  C:4865H         LINE#         6288
BL51 BANKED LINKER/LOCATER V6.22.2.0                                                  03/24/2020  19:38:01  PAGE 95


  C:487DH         LINE#         6289
  C:4895H         LINE#         6290
  C:48AAH         LINE#         6291
  C:48AAH         LINE#         6292
  C:48ADH         LINE#         6294
  C:48ADH         LINE#         6295
  C:48C9H         LINE#         6296
  C:48C9H         LINE#         6297
  C:48E1H         LINE#         6298
  C:48F9H         LINE#         6299
  C:490EH         LINE#         6300
  C:490EH         LINE#         6301
  C:4911H         LINE#         6303
  C:4911H         LINE#         6304
  C:492DH         LINE#         6305
  C:492DH         LINE#         6306
  C:4945H         LINE#         6307
  C:495DH         LINE#         6308
  C:4972H         LINE#         6309
  C:4972H         LINE#         6310
  C:4975H         LINE#         6312
  C:4975H         LINE#         6313
  C:49A0H         LINE#         6314
  C:49A0H         LINE#         6315
  C:49C2H         LINE#         6316
  C:49E4H         LINE#         6317
  C:4A06H         LINE#         6319
  C:4A12H         LINE#         6320
  C:4A1CH         LINE#         6321
  C:4A26H         LINE#         6322
  C:4A2CH         LINE#         6324
  C:4A50H         LINE#         6325
  C:4A53H         LINE#         6326
  C:4A56H         LINE#         6327
  C:4A58H         LINE#         6328
  C:4A5AH         LINE#         6329
  C:4A5CH         LINE#         6330
  C:4A5CH         LINE#         6331
  C:4A5DH         LINE#         6333
  C:4A5DH         LINE#         6334
  C:4A60H         LINE#         6335
  C:4A7CH         LINE#         6336
  C:4A7CH         LINE#         6337
  C:4A83H         LINE#         6338
  C:4A87H         LINE#         6339
  C:4A8BH         LINE#         6340
  C:4A8BH         LINE#         6341
  C:4A8CH         LINE#         6343
  C:4A8CH         LINE#         6344
  C:4AA8H         LINE#         6345
  C:4AA8H         LINE#         6346
  C:4AC0H         LINE#         6347
  C:4AD8H         LINE#         6348
  C:4AEDH         LINE#         6349
  C:4AEDH         LINE#         6350
  C:4AF0H         LINE#         6352
  C:4AF0H         LINE#         6353
BL51 BANKED LINKER/LOCATER V6.22.2.0                                                  03/24/2020  19:38:01  PAGE 96


  C:4B0CH         LINE#         6354
  C:4B0CH         LINE#         6355
  C:4B24H         LINE#         6356
  C:4B3CH         LINE#         6357
  C:4B51H         LINE#         6358
  C:4B51H         LINE#         6359
  C:4B53H         LINE#         6361
  C:4B53H         LINE#         6362
  C:4B69H         LINE#         6363
  C:4B69H         LINE#         6364
  C:4B81H         LINE#         6365
  C:4B99H         LINE#         6366
  C:4BB1H         LINE#         6367
  C:4BB1H         LINE#         6368
  C:4BB1H         LINE#         6370
  C:4BB1H         LINE#         6371
  C:4BB4H         LINE#         6373
  C:4BBBH         LINE#         6374
  C:4BBFH         LINE#         6375
  C:4BC3H         LINE#         6376
  C:4BC3H         LINE#         6378
  C:4BC3H         LINE#         6379
  C:4BC3H         LINE#         6380
  C:4BC3H         LINE#         6381
  C:4BC3H         LINE#         6382
  -------         ENDPROC       UPLOADPARAMANAGE
  -------         PROC          FILTERMANAGE
  -------         DO            
  D:0007H         SYMBOL        result
  -------         ENDDO         
  C:8A36H         LINE#         6388
  C:8A36H         LINE#         6389
  C:8A36H         LINE#         6392
  C:8A3CH         LINE#         6394
  C:8A43H         LINE#         6395
  C:8A46H         LINE#         6397
  C:8A58H         LINE#         6398
  C:8A58H         LINE#         6399
  C:8A5DH         LINE#         6401
  C:8A60H         LINE#         6403
  C:8A6EH         LINE#         6404
  C:8A70H         LINE#         6405
  C:8A7BH         LINE#         6406
  C:8A7BH         LINE#         6407
  C:8A7EH         LINE#         6408
  C:8A7EH         LINE#         6409
  C:8A7EH         LINE#         6410
  -------         ENDPROC       FILTERMANAGE
  -------         PROC          FILTERDATACOMP
  -------         DO            
  D:003EH         SYMBOL        i
  D:0040H         SYMBOL        fgComp
  D:0006H         SYMBOL        result
  -------         ENDDO         
  C:723AH         LINE#         6416
  C:723AH         LINE#         6417
  C:723AH         LINE#         6422
BL51 BANKED LINKER/LOCATER V6.22.2.0                                                  03/24/2020  19:38:01  PAGE 97


  C:723DH         LINE#         6424
  C:7242H         LINE#         6425
  C:7242H         LINE#         6426
  C:7260H         LINE#         6427
  C:7260H         LINE#         6428
  C:7263H         LINE#         6429
  C:7263H         LINE#         6430
  C:7271H         LINE#         6432
  C:7297H         LINE#         6433
  C:72A2H         LINE#         6434
  C:72A2H         LINE#         6435
  C:72A5H         LINE#         6436
  C:72A5H         LINE#         6437
  C:72CBH         LINE#         6438
  C:72D6H         LINE#         6439
  C:72D6H         LINE#         6440
  C:72D9H         LINE#         6441
  C:72D9H         LINE#         6442
  C:72FFH         LINE#         6443
  C:730AH         LINE#         6444
  C:730AH         LINE#         6445
  C:730DH         LINE#         6446
  C:730DH         LINE#         6447
  C:7333H         LINE#         6448
  C:733EH         LINE#         6449
  C:733EH         LINE#         6450
  C:7341H         LINE#         6451
  C:7341H         LINE#         6452
  C:7367H         LINE#         6453
  C:7372H         LINE#         6454
  C:7372H         LINE#         6455
  C:7375H         LINE#         6456
  C:7375H         LINE#         6457
  C:739BH         LINE#         6458
  C:73A6H         LINE#         6459
  C:73A6H         LINE#         6460
  C:73A9H         LINE#         6461
  C:73A9H         LINE#         6463
  C:73AFH         LINE#         6464
  C:73AFH         LINE#         6465
  C:73CDH         LINE#         6466
  C:73CDH         LINE#         6467
  C:73D0H         LINE#         6468
  C:73D0H         LINE#         6469
  C:73DEH         LINE#         6471
  C:73E3H         LINE#         6472
  C:73E3H         LINE#         6473
  C:73FFH         LINE#         6474
  C:740DH         LINE#         6476
  C:740FH         LINE#         6477
  -------         ENDPROC       FILTERDATACOMP
  -------         PROC          _FILTERSAVEDATA
  D:0004H         SYMBOL        pRs
  -------         DO            
  D:0007H         SYMBOL        i
  -------         ENDDO         
  C:6C76H         LINE#         6483
BL51 BANKED LINKER/LOCATER V6.22.2.0                                                  03/24/2020  19:38:01  PAGE 98


  C:6C7AH         LINE#         6484
  C:6C7AH         LINE#         6487
  C:6C83H         LINE#         6488
  C:6C88H         LINE#         6489
  C:6C91H         LINE#         6490
  C:6C96H         LINE#         6491
  C:6C9FH         LINE#         6492
  C:6CA4H         LINE#         6493
  C:6CADH         LINE#         6494
  C:6CB2H         LINE#         6496
  C:6CC0H         LINE#         6497
  C:6CC5H         LINE#         6498
  C:6CCBH         LINE#         6499
  C:6CD0H         LINE#         6500
  C:6CD9H         LINE#         6501
  C:6CDEH         LINE#         6502
  C:6CE8H         LINE#         6503
  C:6CEDH         LINE#         6505
  C:6CFBH         LINE#         6506
  C:6D00H         LINE#         6507
  C:6D06H         LINE#         6508
  C:6D0BH         LINE#         6509
  C:6D19H         LINE#         6510
  C:6D1EH         LINE#         6511
  C:6D24H         LINE#         6512
  C:6D29H         LINE#         6513
  C:6D37H         LINE#         6514
  C:6D3CH         LINE#         6515
  C:6D42H         LINE#         6516
  C:6D47H         LINE#         6517
  C:6D55H         LINE#         6518
  C:6D5AH         LINE#         6519
  C:6D60H         LINE#         6520
  C:6D65H         LINE#         6522
  C:6D6EH         LINE#         6523
  C:6D73H         LINE#         6524
  C:6D7CH         LINE#         6525
  C:6D81H         LINE#         6526
  C:6D8AH         LINE#         6527
  C:6D8FH         LINE#         6528
  C:6D98H         LINE#         6529
  C:6D9DH         LINE#         6531
  C:6DA6H         LINE#         6532
  C:6DABH         LINE#         6533
  C:6DB4H         LINE#         6534
  C:6DB9H         LINE#         6535
  C:6DC2H         LINE#         6536
  C:6DC7H         LINE#         6537
  C:6DD0H         LINE#         6538
  C:6DD5H         LINE#         6540
  C:6DDEH         LINE#         6541
  C:6DE3H         LINE#         6542
  C:6DECH         LINE#         6543
  C:6DF1H         LINE#         6544
  C:6DFAH         LINE#         6545
  C:6DFFH         LINE#         6546
  C:6E08H         LINE#         6547
BL51 BANKED LINKER/LOCATER V6.22.2.0                                                  03/24/2020  19:38:01  PAGE 99


  C:6E0DH         LINE#         6548
  C:6E16H         LINE#         6549
  C:6E1BH         LINE#         6550
  C:6E24H         LINE#         6551
  C:6E29H         LINE#         6552
  C:6E32H         LINE#         6553
  C:6E37H         LINE#         6554
  C:6E40H         LINE#         6555
  C:6E45H         LINE#         6557
  C:6E51H         LINE#         6558
  C:6E51H         LINE#         6559
  C:6E61H         LINE#         6560
  C:6E66H         LINE#         6561
  C:6E69H         LINE#         6562
  -------         ENDPROC       _FILTERSAVEDATA
  -------         PROC          POWERCONTROL
  -------         DO            
  D:003EH         SYMBOL        fgVa
  -------         ENDDO         
  C:5346H         LINE#         6570
  C:5346H         LINE#         6571
  C:5346H         LINE#         6575
  C:538CH         LINE#         6576
  C:538CH         LINE#         6577
  C:538CH         LINE#         6578
  C:538FH         LINE#         6579
  C:53D5H         LINE#         6580
  C:53D5H         LINE#         6581
  C:53D5H         LINE#         6582
  C:53D7H         LINE#         6583
  C:541DH         LINE#         6584
  C:541DH         LINE#         6585
  C:5420H         LINE#         6586
  C:5422H         LINE#         6588
  C:5422H         LINE#         6589
  C:5425H         LINE#         6590
  C:5425H         LINE#         6592
  C:542EH         LINE#         6593
  C:542EH         LINE#         6594
  C:5437H         LINE#         6595
  C:5449H         LINE#         6596
  C:5449H         LINE#         6597
  C:5491H         LINE#         6598
  C:5491H         LINE#         6599
  C:54BAH         LINE#         6600
  C:54BAH         LINE#         6601
  C:54C0H         LINE#         6603
  C:54CCH         LINE#         6604
  C:54D6H         LINE#         6605
  C:54E0H         LINE#         6607
  C:54E0H         LINE#         6608
  C:54E0H         LINE#         6609
  C:54E0H         LINE#         6610
  C:54E0H         LINE#         6611
  C:54E2H         LINE#         6613
  C:54E2H         LINE#         6614
  C:54E9H         LINE#         6615
BL51 BANKED LINKER/LOCATER V6.22.2.0                                                  03/24/2020  19:38:01  PAGE 100


  C:54E9H         LINE#         6617
  C:54F4H         LINE#         6618
  C:54F4H         LINE#         6619
  C:5508H         LINE#         6620
  C:5508H         LINE#         6621
  C:554EH         LINE#         6622
  C:554EH         LINE#         6624
  C:5563H         LINE#         6625
  C:5563H         LINE#         6626
  C:5592H         LINE#         6627
  C:5592H         LINE#         6629
  C:55B0H         LINE#         6631
  C:55C3H         LINE#         6632
  C:55C3H         LINE#         6633
  C:55CDH         LINE#         6634
  C:55D7H         LINE#         6635
  C:55E3H         LINE#         6636
  C:55E3H         LINE#         6637
  C:55E3H         LINE#         6639
  C:55F7H         LINE#         6640
  C:55F7H         LINE#         6641
  C:5601H         LINE#         6642
  C:5601H         LINE#         6644
  C:5614H         LINE#         6645
  C:5614H         LINE#         6646
  C:5629H         LINE#         6647
  C:5633H         LINE#         6648
  C:5633H         LINE#         6650
  C:5657H         LINE#         6651
  C:565AH         LINE#         6652
  C:567EH         LINE#         6653
  C:5681H         LINE#         6654
  C:56A5H         LINE#         6655
  C:56A8H         LINE#         6656
  -------         ENDPROC       POWERCONTROL
  -------         PROC          EQUCONTROL
  -------         DO            
  D:003EH         SYMBOL        i
  D:003FH         SYMBOL        j
  D:0040H         SYMBOL        index
  D:0041H         SYMBOL        maxindex
  D:0006H         SYMBOL        TlevelSet
  -------         ENDDO         
  C:4FC4H         LINE#         6663
  C:4FC4H         LINE#         6664
  C:4FC4H         LINE#         6671
  C:4FCFH         LINE#         6672
  C:4FCFH         LINE#         6673
  C:4FD5H         LINE#         6675
  C:4FE2H         LINE#         6676
  C:4FE2H         LINE#         6677
  C:4FE4H         LINE#         6679
  C:4FE6H         LINE#         6680
  C:4FE9H         LINE#         6682
  C:4FF6H         LINE#         6683
  C:4FF6H         LINE#         6684
  C:5016H         LINE#         6685
BL51 BANKED LINKER/LOCATER V6.22.2.0                                                  03/24/2020  19:38:01  PAGE 101


  C:5016H         LINE#         6686
  C:5019H         LINE#         6687
  C:501BH         LINE#         6688
  C:501BH         LINE#         6689
  C:501FH         LINE#         6691
  C:5029H         LINE#         6692
  C:5029H         LINE#         6693
  C:504BH         LINE#         6694
  C:504BH         LINE#         6695
  C:504DH         LINE#         6696
  C:504DH         LINE#         6697
  C:5051H         LINE#         6699
  C:505BH         LINE#         6700
  C:505BH         LINE#         6701
  C:5069H         LINE#         6702
  C:5069H         LINE#         6703
  C:50A9H         LINE#         6704
  C:50A9H         LINE#         6705
  C:50C0H         LINE#         6706
  C:50C0H         LINE#         6707
  C:50C0H         LINE#         6708
  C:50C0H         LINE#         6709
  C:50C0H         LINE#         6710
  C:50C4H         LINE#         6711
  C:50CFH         LINE#         6712
  C:50CFH         LINE#         6713
  C:50CFH         LINE#         6714
  C:50CFH         LINE#         6715
  C:50D3H         LINE#         6717
  C:50DAH         LINE#         6718
  C:50E6H         LINE#         6719
  C:50E6H         LINE#         6720
  C:50F7H         LINE#         6721
  C:50F7H         LINE#         6722
  C:5199H         LINE#         6723
  C:5199H         LINE#         6724
  C:51D0H         LINE#         6725
  C:51D0H         LINE#         6726
  C:51F8H         LINE#         6727
  C:51FEH         LINE#         6728
  C:5208H         LINE#         6729
  C:5208H         LINE#         6730
  C:520AH         LINE#         6731
  C:520AH         LINE#         6733
  C:521BH         LINE#         6734
  C:522FH         LINE#         6735
  C:522FH         LINE#         6736
  C:523DH         LINE#         6737
  C:523DH         LINE#         6738
  C:5240H         LINE#         6740
  C:5240H         LINE#         6741
  C:5279H         LINE#         6742
  C:5279H         LINE#         6743
  C:52A1H         LINE#         6744
  C:52A7H         LINE#         6745
  C:52B1H         LINE#         6746
  C:52B1H         LINE#         6747
BL51 BANKED LINKER/LOCATER V6.22.2.0                                                  03/24/2020  19:38:01  PAGE 102


  C:52B3H         LINE#         6748
  C:52B3H         LINE#         6749
  C:52B3H         LINE#         6750
  C:52B3H         LINE#         6751
  C:52B5H         LINE#         6753
  C:52B5H         LINE#         6754
  C:52DDH         LINE#         6755
  C:52E3H         LINE#         6756
  C:52EDH         LINE#         6757
  C:52EDH         LINE#         6758
  C:52EFH         LINE#         6759
  C:52EFH         LINE#         6760
  C:52EFH         LINE#         6761
  C:52F4H         LINE#         6762
  C:52F4H         LINE#         6764
  C:52F4H         LINE#         6765
  C:5302H         LINE#         6766
  C:5302H         LINE#         6767
  C:532AH         LINE#         6768
  C:5330H         LINE#         6769
  C:533AH         LINE#         6770
  C:533AH         LINE#         6771
  C:533CH         LINE#         6772
  C:533CH         LINE#         6773
  C:5340H         LINE#         6774
  C:5340H         LINE#         6775
  C:5340H         LINE#         6776
  C:5340H         LINE#         6778
  C:5340H         LINE#         6779
  C:5345H         LINE#         6780
  C:5345H         LINE#         6781
  -------         ENDPROC       EQUCONTROL
  -------         PROC          EQUONOFFHOOK
  C:8AC5H         LINE#         6788
  C:8AC5H         LINE#         6789
  C:8AC5H         LINE#         6790
  C:8AD1H         LINE#         6791
  C:8AD1H         LINE#         6792
  C:8AD7H         LINE#         6794
  C:8AD9H         LINE#         6796
  C:8AEAH         LINE#         6797
  C:8AECH         LINE#         6799
  C:8AF3H         LINE#         6800
  C:8AF5H         LINE#         6801
  C:8AF7H         LINE#         6803
  C:8AFDH         LINE#         6804
  C:8B07H         LINE#         6805
  C:8B07H         LINE#         6806
  C:8B09H         LINE#         6807
  C:8B09H         LINE#         6808
  C:8B09H         LINE#         6809
  -------         ENDPROC       EQUONOFFHOOK
  -------         PROC          SINGLEPROTECTCHARGECONTROL
  -------         DO            
  D:003EH         SYMBOL        i
  D:003FH         SYMBOL        j
  D:0040H         SYMBOL        tflag
BL51 BANKED LINKER/LOCATER V6.22.2.0                                                  03/24/2020  19:38:01  PAGE 103


  D:0041H         SYMBOL        singleV
  X:89C5H         SYMBOL        aqCalVA
  X:89C9H         SYMBOL        aqCalVB
  X:89CDH         SYMBOL        result1
  X:89D1H         SYMBOL        result2
  -------         ENDDO         
  C:59FAH         LINE#         6815
  C:59FAH         LINE#         6816
  C:59FAH         LINE#         6826
  C:5A10H         LINE#         6827
  C:5A10H         LINE#         6828
  C:5A42H         LINE#         6829
  C:5A42H         LINE#         6830
  C:5A67H         LINE#         6831
  C:5A67H         LINE#         6832
  C:5A78H         LINE#         6833
  C:5A78H         LINE#         6834
  C:5A7BH         LINE#         6835
  C:5AD4H         LINE#         6836
  C:5AD4H         LINE#         6837
  C:5AD7H         LINE#         6838
  C:5ADAH         LINE#         6840
  C:5ADAH         LINE#         6841
  C:5AE8H         LINE#         6842
  C:5AE8H         LINE#         6843
  C:5AF7H         LINE#         6844
  C:5AF7H         LINE#         6845
  C:5B16H         LINE#         6846
  C:5B37H         LINE#         6847
  C:5B37H         LINE#         6848
  C:5B3BH         LINE#         6850
  C:5B6FH         LINE#         6851
  C:5B6FH         LINE#         6852
  C:5B6FH         LINE#         6853
  C:5B72H         LINE#         6854
  C:5BA9H         LINE#         6855
  C:5BA9H         LINE#         6856
  C:5BCDH         LINE#         6857
  C:5BE5H         LINE#         6858
  C:5BFAH         LINE#         6859
  C:5BFAH         LINE#         6860
  C:5C0DH         LINE#         6861
  C:5C0DH         LINE#         6862
  C:5C0DH         LINE#         6863
  C:5C0DH         LINE#         6864
  C:5C0FH         LINE#         6866
  C:5C0FH         LINE#         6867
  C:5C30H         LINE#         6868
  C:5C30H         LINE#         6869
  C:5C33H         LINE#         6870
  C:5C33H         LINE#         6871
  C:5C33H         LINE#         6872
  C:5C33H         LINE#         6873
  C:5C33H         LINE#         6875
  C:5C3CH         LINE#         6876
  C:5C3CH         LINE#         6877
  C:5C4DH         LINE#         6878
BL51 BANKED LINKER/LOCATER V6.22.2.0                                                  03/24/2020  19:38:01  PAGE 104


  C:5C4DH         LINE#         6879
  C:5C8FH         LINE#         6880
  C:5C8FH         LINE#         6881
  C:5C97H         LINE#         6882
  C:5C97H         LINE#         6883
  C:5C9FH         LINE#         6884
  C:5CA7H         LINE#         6885
  C:5CADH         LINE#         6886
  C:5CADH         LINE#         6888
  C:5CB7H         LINE#         6889
  C:5CB8H         LINE#         6891
  C:5CB8H         LINE#         6892
  C:5CB8H         LINE#         6894
  C:5CBBH         LINE#         6895
  C:5CC5H         LINE#         6897
  C:5CCBH         LINE#         6898
  C:5CD5H         LINE#         6899
  C:5CE4H         LINE#         6900
  C:5CE4H         LINE#         6901
  C:5CE8H         LINE#         6902
  C:5CE8H         LINE#         6904
  C:5CEAH         LINE#         6905
  C:5CEAH         LINE#         6906
  C:5CEFH         LINE#         6907
  C:5CEFH         LINE#         6908
  C:5CF4H         LINE#         6909
  C:5CF4H         LINE#         6910
  C:5CF4H         LINE#         6911
  C:5CF4H         LINE#         6912
  -------         ENDPROC       SINGLEPROTECTCHARGECONTROL
  -------         PROC          L?1288
  -------         ENDPROC       L?1288
  -------         PROC          _ONOFFSELFEXEREC
  D:0002H         SYMBOL        type
  D:0003H         SYMBOL        number
  C:6433H         LINE#         6918
  C:6437H         LINE#         6919
  C:6437H         LINE#         6920
  C:643FH         LINE#         6921
  C:643FH         LINE#         6922
  C:645DH         LINE#         6923
  C:6477H         LINE#         6924
  C:6491H         LINE#         6925
  C:64A6H         LINE#         6926
  C:64BBH         LINE#         6927
  C:64D0H         LINE#         6929
  C:64D6H         LINE#         6930
  C:64E3H         LINE#         6931
  C:64E3H         LINE#         6932
  C:64E5H         LINE#         6933
  C:64E5H         LINE#         6934
  C:64E6H         LINE#         6935
  C:64EEH         LINE#         6936
  C:64EEH         LINE#         6937
  C:650CH         LINE#         6938
  C:6526H         LINE#         6939
  C:6540H         LINE#         6940
BL51 BANKED LINKER/LOCATER V6.22.2.0                                                  03/24/2020  19:38:01  PAGE 105


  C:6555H         LINE#         6941
  C:656AH         LINE#         6942
  C:657FH         LINE#         6944
  C:6585H         LINE#         6945
  C:6592H         LINE#         6946
  C:6592H         LINE#         6947
  C:6594H         LINE#         6948
  C:6594H         LINE#         6949
  C:6595H         LINE#         6950
  C:659DH         LINE#         6951
  C:659DH         LINE#         6952
  C:65BBH         LINE#         6953
  C:65D5H         LINE#         6954
  C:65F3H         LINE#         6955
  C:6608H         LINE#         6956
  C:661FH         LINE#         6957
  C:662EH         LINE#         6959
  C:6634H         LINE#         6960
  C:663EH         LINE#         6961
  C:663EH         LINE#         6962
  C:6640H         LINE#         6963
  C:6640H         LINE#         6964
  C:6640H         LINE#         6965
  -------         ENDPROC       _ONOFFSELFEXEREC
  -------         PROC          RAMCHECK
  -------         DO            
  D:0007H         SYMBOL        i
  X:89C5H         SYMBOL        check
  -------         ENDDO         
  C:83EBH         LINE#         6971
  C:83EBH         LINE#         6972
  C:83EBH         LINE#         6976
  C:83F7H         LINE#         6977
  C:83F7H         LINE#         6978
  C:8404H         LINE#         6979
  C:8407H         LINE#         6980
  C:8413H         LINE#         6981
  C:8413H         LINE#         6982
  C:8422H         LINE#         6983
  C:8422H         LINE#         6984
  C:8425H         LINE#         6985
  C:8425H         LINE#         6986
  C:8428H         LINE#         6987
  C:8434H         LINE#         6988
  C:8434H         LINE#         6989
  C:8441H         LINE#         6990
  C:8444H         LINE#         6991
  C:8450H         LINE#         6992
  C:8450H         LINE#         6993
  C:845FH         LINE#         6994
  C:845FH         LINE#         6995
  C:8462H         LINE#         6996
  C:8462H         LINE#         6997
  C:8465H         LINE#         6998
  C:8467H         LINE#         6999
  -------         ENDPROC       RAMCHECK
  -------         PROC          POWERSUPPLYCHECK
BL51 BANKED LINKER/LOCATER V6.22.2.0                                                  03/24/2020  19:38:01  PAGE 106


  C:85C8H         LINE#         7006
  C:85C8H         LINE#         7007
  C:85C8H         LINE#         7008
  C:85D1H         LINE#         7009
  C:85D1H         LINE#         7010
  C:85EAH         LINE#         7011
  C:85EAH         LINE#         7012
  C:85F0H         LINE#         7013
  C:85FAH         LINE#         7014
  C:85FAH         LINE#         7015
  C:85FAH         LINE#         7016
  C:85FAH         LINE#         7017
  C:85FCH         LINE#         7025
  C:85FCH         LINE#         7026
  C:8615H         LINE#         7027
  C:8615H         LINE#         7028
  C:861BH         LINE#         7029
  C:8625H         LINE#         7030
  C:8625H         LINE#         7031
  C:862BH         LINE#         7032
  C:862BH         LINE#         7033
  C:862CH         LINE#         7035
  C:862CH         LINE#         7036
  C:8631H         LINE#         7037
  C:8637H         LINE#         7038
  C:8637H         LINE#         7039
  C:8637H         LINE#         7040
  -------         ENDPROC       POWERSUPPLYCHECK
  -------         PROC          OVERCHARGEPROTECT
  -------         DO            
  D:003EH         SYMBOL        i
  X:89C5H         SYMBOL        batteryVminus1
  X:89C9H         SYMBOL        batteryVminus2
  X:89CDH         SYMBOL        tempfloat
  X:89D1H         SYMBOL        batteryValueCunt
  X:89D3H         SYMBOL        batteryChannel
  -------         ENDDO         
  C:5F7CH         LINE#         7046
  C:5F7CH         LINE#         7047
  C:5F7CH         LINE#         7055
  C:5F92H         LINE#         7056
  C:5F92H         LINE#         7057
  C:5FC4H         LINE#         7058
  C:5FC4H         LINE#         7059
  C:5FEAH         LINE#         7060
  C:5FEAH         LINE#         7061
  C:5FEDH         LINE#         7062
  C:5FF0H         LINE#         7063
  C:6016H         LINE#         7064
  C:6016H         LINE#         7065
  C:602EH         LINE#         7066
  C:6046H         LINE#         7067
  C:606AH         LINE#         7068
  C:6080H         LINE#         7069
  C:6080H         LINE#         7070
  C:6083H         LINE#         7071
  C:6085H         LINE#         7078
BL51 BANKED LINKER/LOCATER V6.22.2.0                                                  03/24/2020  19:38:01  PAGE 107


  C:6085H         LINE#         7079
  C:608BH         LINE#         7080
  C:608BH         LINE#         7082
  C:6096H         LINE#         7083
  C:6096H         LINE#         7084
  C:60A3H         LINE#         7085
  C:60A3H         LINE#         7086
  C:60C5H         LINE#         7087
  C:60C5H         LINE#         7088
  C:60D1H         LINE#         7089
  C:60D3H         LINE#         7091
  C:60D3H         LINE#         7092
  C:60DEH         LINE#         7093
  C:60DEH         LINE#         7094
  C:60E2H         LINE#         7095
  C:60E9H         LINE#         7096
  C:60EDH         LINE#         7098
  C:60F3H         LINE#         7099
  C:60F3H         LINE#         7100
  C:60F9H         LINE#         7102
  C:610EH         LINE#         7103
  C:610EH         LINE#         7104
  C:6142H         LINE#         7105
  C:6142H         LINE#         7106
  C:6142H         LINE#         7107
  C:6147H         LINE#         7108
  C:6149H         LINE#         7109
  C:614BH         LINE#         7111
  C:614BH         LINE#         7112
  C:6150H         LINE#         7113
  C:6152H         LINE#         7114
  C:6154H         LINE#         7116
  C:6154H         LINE#         7117
  C:6159H         LINE#         7118
  C:615BH         LINE#         7119
  C:615DH         LINE#         7121
  C:615DH         LINE#         7122
  C:6162H         LINE#         7123
  C:6164H         LINE#         7124
  C:6166H         LINE#         7126
  C:6166H         LINE#         7127
  C:616BH         LINE#         7128
  C:616DH         LINE#         7129
  C:616FH         LINE#         7131
  C:616FH         LINE#         7132
  C:6174H         LINE#         7133
  C:6176H         LINE#         7134
  C:6178H         LINE#         7136
  C:6178H         LINE#         7137
  C:617DH         LINE#         7138
  C:617FH         LINE#         7139
  C:6181H         LINE#         7141
  C:6181H         LINE#         7142
  C:6186H         LINE#         7143
  C:6188H         LINE#         7144
  C:618AH         LINE#         7146
  C:618AH         LINE#         7147
BL51 BANKED LINKER/LOCATER V6.22.2.0                                                  03/24/2020  19:38:01  PAGE 108


  C:618FH         LINE#         7148
  C:6191H         LINE#         7149
  C:6193H         LINE#         7151
  C:6193H         LINE#         7152
  C:6198H         LINE#         7153
  C:619FH         LINE#         7154
  C:619FH         LINE#         7156
  C:619FH         LINE#         7157
  C:619FH         LINE#         7158
  C:619FH         LINE#         7160
  C:61A5H         LINE#         7161
  C:61AFH         LINE#         7162
  C:61BEH         LINE#         7163
  C:61BEH         LINE#         7164
  C:61C2H         LINE#         7165
  C:61C2H         LINE#         7166
  C:61C2H         LINE#         7167
  C:61C2H         LINE#         7168
  C:61C3H         LINE#         7170
  C:61C3H         LINE#         7171
  C:61D1H         LINE#         7172
  C:61D1H         LINE#         7173
  C:61DEH         LINE#         7174
  C:61E2H         LINE#         7175
  C:61E2H         LINE#         7176
  C:61E2H         LINE#         7177
  C:61E2H         LINE#         7178
  -------         ENDPROC       OVERCHARGEPROTECT
  -------         PROC          CHARGECHECK
  -------         DO            
  D:0007H         SYMBOL        temp
  D:003EH         SYMBOL        ttflag
  -------         ENDDO         
  C:6E6AH         LINE#         7184
  C:6E6AH         LINE#         7185
  C:6E6AH         LINE#         7189
  C:6E6DH         LINE#         7190
  C:6E7FH         LINE#         7192
  C:6E8AH         LINE#         7193
  C:6E8AH         LINE#         7194
  C:6E8AH         LINE#         7195
  C:6E90H         LINE#         7196
  C:6E92H         LINE#         7197
  C:6E92H         LINE#         7198
  C:6E98H         LINE#         7199
  C:6E9AH         LINE#         7200
  C:6E9AH         LINE#         7201
  C:6EA0H         LINE#         7202
  C:6EA2H         LINE#         7203
  C:6EA2H         LINE#         7204
  C:6EA8H         LINE#         7205
  C:6EA8H         LINE#         7206
  C:6EA8H         LINE#         7207
  C:6EA8H         LINE#         7208
  C:6EA8H         LINE#         7210
  C:6EAEH         LINE#         7211
  C:6EC4H         LINE#         7212
BL51 BANKED LINKER/LOCATER V6.22.2.0                                                  03/24/2020  19:38:01  PAGE 109


  C:6EC4H         LINE#         7213
  C:6ECAH         LINE#         7214
  C:6ECFH         LINE#         7215
  C:6ED1H         LINE#         7217
  C:6ED1H         LINE#         7218
  C:6ED7H         LINE#         7219
  C:6EDCH         LINE#         7220
  C:6EDCH         LINE#         7221
  C:6EF2H         LINE#         7222
  C:6EF2H         LINE#         7223
  C:6EF8H         LINE#         7224
  C:6EFAH         LINE#         7226
  C:6EFAH         LINE#         7227
  C:6EFFH         LINE#         7228
  C:6EFFH         LINE#         7229
  C:6F15H         LINE#         7230
  C:6F15H         LINE#         7231
  C:6F1BH         LINE#         7232
  C:6F1DH         LINE#         7234
  C:6F1DH         LINE#         7235
  C:6F22H         LINE#         7236
  C:6F22H         LINE#         7237
  C:6F38H         LINE#         7238
  C:6F38H         LINE#         7239
  C:6F3EH         LINE#         7240
  C:6F40H         LINE#         7242
  C:6F40H         LINE#         7243
  C:6F45H         LINE#         7244
  C:6F45H         LINE#         7245
  C:6F5BH         LINE#         7246
  C:6F5BH         LINE#         7247
  C:6F61H         LINE#         7248
  C:6F63H         LINE#         7250
  C:6F63H         LINE#         7251
  C:6F68H         LINE#         7252
  C:6F68H         LINE#         7254
  C:6F75H         LINE#         7255
  C:6F75H         LINE#         7256
  C:6F8AH         LINE#         7257
  C:6F8AH         LINE#         7258
  C:6F8AH         LINE#         7259
  C:6F8AH         LINE#         7260
  C:6F8CH         LINE#         7262
  C:6F8CH         LINE#         7263
  C:6FA4H         LINE#         7264
  C:6FA4H         LINE#         7265
  C:6FA7H         LINE#         7266
  C:6FA7H         LINE#         7267
  C:6FA7H         LINE#         7270
  C:6FB4H         LINE#         7271
  C:6FB4H         LINE#         7272
  C:6FC9H         LINE#         7273
  C:6FC9H         LINE#         7274
  C:6FC9H         LINE#         7275
  C:6FC9H         LINE#         7276
  C:6FCBH         LINE#         7278
  C:6FCBH         LINE#         7279
BL51 BANKED LINKER/LOCATER V6.22.2.0                                                  03/24/2020  19:38:01  PAGE 110


  C:6FE3H         LINE#         7280
  C:6FE3H         LINE#         7281
  C:6FE9H         LINE#         7282
  C:6FE9H         LINE#         7283
  C:6FE9H         LINE#         7285
  C:6FEFH         LINE#         7286
  C:6FEFH         LINE#         7287
  C:6FF7H         LINE#         7288
  C:6FF7H         LINE#         7289
  C:7010H         LINE#         7290
  C:7010H         LINE#         7291
  C:7015H         LINE#         7292
  C:7019H         LINE#         7293
  C:701DH         LINE#         7295
  C:7025H         LINE#         7296
  C:7029H         LINE#         7297
  C:702DH         LINE#         7299
  C:7033H         LINE#         7301
  C:703BH         LINE#         7302
  C:7042H         LINE#         7304
  C:7042H         LINE#         7305
  C:7042H         LINE#         7307
  C:7045H         LINE#         7308
  C:704FH         LINE#         7310
  C:7055H         LINE#         7311
  C:7055H         LINE#         7312
  C:7055H         LINE#         7313
  C:7055H         LINE#         7314
  -------         ENDPROC       CHARGECHECK
  -------         ENDMOD        POWER

  -------         MODULE        ?C?FPADD
  C:2690H         PUBLIC        ?C?FPADD
  C:268CH         PUBLIC        ?C?FPSUB
  -------         ENDMOD        ?C?FPADD

  -------         MODULE        ?C?FPMUL
  C:2781H         PUBLIC        ?C?FPMUL
  -------         ENDMOD        ?C?FPMUL

  -------         MODULE        ?C?FPDIV
  C:288AH         PUBLIC        ?C?FPDIV
  -------         ENDMOD        ?C?FPDIV

  -------         MODULE        ?C?FPCMP
  C:2929H         PUBLIC        ?C?FPCMP
  C:2927H         PUBLIC        ?C?FPCMP3
  -------         ENDMOD        ?C?FPCMP

  -------         MODULE        ?C?FCAST
  C:29AAH         PUBLIC        ?C?FCASTC
  C:29A5H         PUBLIC        ?C?FCASTI
  C:29A0H         PUBLIC        ?C?FCASTL
  -------         ENDMOD        ?C?FCAST

  -------         MODULE        ?C?CASTF
  C:29DEH         PUBLIC        ?C?CASTF
BL51 BANKED LINKER/LOCATER V6.22.2.0                                                  03/24/2020  19:38:01  PAGE 111


  -------         ENDMOD        ?C?CASTF

  -------         MODULE        FABS
  C:8CB2H         PUBLIC        _FABS
  -------         ENDMOD        FABS

  -------         MODULE        ?C?CLDPTR
  C:2A5FH         PUBLIC        ?C?CLDPTR
  -------         ENDMOD        ?C?CLDPTR

  -------         MODULE        ?C?CSTPTR
  C:2A78H         PUBLIC        ?C?CSTPTR
  -------         ENDMOD        ?C?CSTPTR

  -------         MODULE        ?C?IMUL
  C:2A8AH         PUBLIC        ?C?IMUL
  -------         ENDMOD        ?C?IMUL

  -------         MODULE        ?C?IILDX
  C:2A9CH         PUBLIC        ?C?IILDX
  -------         ENDMOD        ?C?IILDX

  -------         MODULE        ?C?ILDPTR
  C:2AB2H         PUBLIC        ?C?ILDPTR
  -------         ENDMOD        ?C?ILDPTR

  -------         MODULE        ?C?ISTPTR
  C:2ADDH         PUBLIC        ?C?ISTPTR
  -------         ENDMOD        ?C?ISTPTR

  -------         MODULE        ?C?LOR
  C:2AFCH         PUBLIC        ?C?LOR
  -------         ENDMOD        ?C?LOR

  -------         MODULE        ?C?LNEG
  C:2B09H         PUBLIC        ?C?LNEG
  -------         ENDMOD        ?C?LNEG

  -------         MODULE        ?C?SLCMP
  C:2B17H         PUBLIC        ?C?SLCMP
  -------         ENDMOD        ?C?SLCMP

  -------         MODULE        ?C?ULSHR
  C:2B2DH         PUBLIC        ?C?ULSHR
  -------         ENDMOD        ?C?ULSHR

  -------         MODULE        ?C?LLDPTR
  C:2B40H         PUBLIC        ?C?LLDPTR
  -------         ENDMOD        ?C?LLDPTR

  -------         MODULE        ?C?LSTPTR
  C:2B60H         PUBLIC        ?C?LSTPTR
  -------         ENDMOD        ?C?LSTPTR

  -------         MODULE        ?C?LLDXDATA
  C:2B7AH         PUBLIC        ?C?LLDXDATA
  -------         ENDMOD        ?C?LLDXDATA
BL51 BANKED LINKER/LOCATER V6.22.2.0                                                  03/24/2020  19:38:01  PAGE 112



  -------         MODULE        ?C?LLDCODE
  C:2B86H         PUBLIC        ?C?LLDCODE
  -------         ENDMOD        ?C?LLDCODE

  -------         MODULE        ?C?LLDXDATA0
  C:2B96H         PUBLIC        ?C?LLDXDATA0
  -------         ENDMOD        ?C?LLDXDATA0

  -------         MODULE        ?C?LLDPTR0
  C:2BA2H         PUBLIC        ?C?LLDPTR0
  -------         ENDMOD        ?C?LLDPTR0

  -------         MODULE        ?C?LSTXDATA
  C:2BC2H         PUBLIC        ?C?LSTXDATA
  -------         ENDMOD        ?C?LSTXDATA

  -------         MODULE        ?C?LSTKXDATA
  C:2BCEH         PUBLIC        ?C?LSTKXDATA
  -------         ENDMOD        ?C?LSTKXDATA

  -------         MODULE        ?C?OFFXADD
  C:2BFFH         PUBLIC        ?C?OFFXADD
  -------         ENDMOD        ?C?OFFXADD

  -------         MODULE        ?C?CCASE
  C:2C0BH         PUBLIC        ?C?CCASE
  -------         ENDMOD        ?C?CCASE

  -------         MODULE        ABS
  C:8CBFH         PUBLIC        _ABS
  -------         ENDMOD        ABS

  -------         MODULE        ?C?LLDIDATA
  C:2C31H         PUBLIC        ?C?LLDIDATA
  -------         ENDMOD        ?C?LLDIDATA

  -------         MODULE        ?C?LLDPDATA
  C:2C3DH         PUBLIC        ?C?LLDPDATA
  -------         ENDMOD        ?C?LLDPDATA

  -------         MODULE        ?C?LLDIDATA0
  C:2C49H         PUBLIC        ?C?LLDIDATA0
  -------         ENDMOD        ?C?LLDIDATA0

  -------         MODULE        ?C?LLDPDATA0
  C:2C56H         PUBLIC        ?C?LLDPDATA0
  -------         ENDMOD        ?C?LLDPDATA0

  -------         MODULE        ?C?LLDCODE0
  C:2C63H         PUBLIC        ?C?LLDCODE0
  -------         ENDMOD        ?C?LLDCODE0

  -------         MODULE        ?C?LSTIDATA
  C:2C73H         PUBLIC        ?C?LSTIDATA
  -------         ENDMOD        ?C?LSTIDATA

BL51 BANKED LINKER/LOCATER V6.22.2.0                                                  03/24/2020  19:38:01  PAGE 113


  -------         MODULE        ?C?LSTPDATA
  C:2C7FH         PUBLIC        ?C?LSTPDATA
  -------         ENDMOD        ?C?LSTPDATA

Program Size: data=69.0 xdata=3295 code=36031
LINK/LOCATE RUN COMPLETE.  0 WARNING(S),  0 ERROR(S)
